	.section	__TEXT,__text,regular,pure_instructions
	.macosx_version_min 10, 7
	.section	__TEXT,__literal16,16byte_literals
	.align	4
LCPI0_0:
	.quad	4607182418800017408     ## double 1.000000e+00
	.quad	4607182418800017408     ## double 1.000000e+00
	.section	__TEXT,__text,regular,pure_instructions
	.globl	__ZN5LIGHTC2Ev
	.align	4, 0x90
__ZN5LIGHTC2Ev:                         ## @_ZN5LIGHTC2Ev
Lfunc_begin0:
	.loc	16 123 0                ## /Users/nobuhiro/Documents/source/openframeworks/of_v0.9.0_osx_release/apps/myApps/Gusha_Entrance/src/Light.cpp:123:0
	.cfi_startproc
	.cfi_personality 155, ___gxx_personality_v0
	.cfi_lsda 16, Lexception0
## BB#0:
	pushq	%rbp
Ltmp20:
	.cfi_def_cfa_offset 16
Ltmp21:
	.cfi_offset %rbp, -16
	movq	%rsp, %rbp
Ltmp22:
	.cfi_def_cfa_register %rbp
	pushq	%r15
	pushq	%r14
	pushq	%r13
	pushq	%r12
	pushq	%rbx
	subq	$24, %rsp
Ltmp23:
	.cfi_offset %rbx, -56
Ltmp24:
	.cfi_offset %r12, -48
Ltmp25:
	.cfi_offset %r13, -40
Ltmp26:
	.cfi_offset %r14, -32
Ltmp27:
	.cfi_offset %r15, -24
	##DEBUG_VALUE: LIGHT:this <- RDI
	movq	%rdi, %rbx
Ltmp28:
	##DEBUG_VALUE: LIGHT:this <- RBX
	.loc	42 35 5 prologue_end    ## /Users/nobuhiro/Documents/source/openframeworks/of_v0.9.0_osx_release/addons/ofxArtnet/src/ofxArtnet.h:35:5
                                        ## kill: RDI<def> RBX<kill>
	callq	__ZN8ofThreadC2Ev
	.loc	42 36 5                 ## /Users/nobuhiro/Documents/source/openframeworks/of_v0.9.0_osx_release/addons/ofxArtnet/src/ofxArtnet.h:36:5
	movq	__ZTV9ofxArtnet@GOTPCREL(%rip), %r15
	addq	$16, %r15
	movq	%r15, (%rbx)
	.loc	42 35 5                 ## /Users/nobuhiro/Documents/source/openframeworks/of_v0.9.0_osx_release/addons/ofxArtnet/src/ofxArtnet.h:35:5
	leaq	344(%rbx), %r14
Ltmp29:
	##DEBUG_VALUE: __i <- 0
	##DEBUG_VALUE: __zero:this <- R14
	##DEBUG_VALUE: basic_string:this <- R14
	##DEBUG_VALUE: basic_string:this <- R14
	##DEBUG_VALUE: operator=:this <- R14
	leaq	368(%rbx), %r12
Ltmp30:
	##DEBUG_VALUE: __i <- 0
	##DEBUG_VALUE: __zero:this <- R12
	##DEBUG_VALUE: basic_string:this <- R12
	##DEBUG_VALUE: basic_string:this <- R12
	##DEBUG_VALUE: operator=:this <- R12
	.loc	5 1765 26               ## /Applications/Xcode.app/Contents/Developer/Toolchains/XcodeDefault.xctoolchain/usr/bin/../include/c++/v1/string:1765:26
	movq	$0, 384(%rbx)
	movq	$0, 376(%rbx)
	movq	$0, 368(%rbx)
	movq	$0, 360(%rbx)
	movq	$0, 352(%rbx)
	movq	$0, 344(%rbx)
Ltmp31:
	.loc	42 37 17                ## /Users/nobuhiro/Documents/source/openframeworks/of_v0.9.0_osx_release/addons/ofxArtnet/src/ofxArtnet.h:37:17
	movq	__ZN9ofxArtnet7verboseE@GOTPCREL(%rip), %rax
	movb	$1, (%rax)
	.loc	42 38 21                ## /Users/nobuhiro/Documents/source/openframeworks/of_v0.9.0_osx_release/addons/ofxArtnet/src/ofxArtnet.h:38:21
	movq	__ZN9ofxArtnet11nodes_foundE@GOTPCREL(%rip), %rax
	movl	$0, (%rax)
	.loc	42 39 16                ## /Users/nobuhiro/Documents/source/openframeworks/of_v0.9.0_osx_release/addons/ofxArtnet/src/ofxArtnet.h:39:16
	movq	__ZN9ofxArtnet6statusE@GOTPCREL(%rip), %rax
	movl	$0, (%rax)
	.loc	5 1370 86               ## /Applications/Xcode.app/Contents/Developer/Toolchains/XcodeDefault.xctoolchain/usr/bin/../include/c++/v1/string:1370:86
Ltmp32:
Ltmp0:
	leaq	L_.str56(%rip), %rsi
Ltmp33:
	##DEBUG_VALUE: operator=:__s <- RSI
	movq	%r14, %rdi
	callq	__ZNSt3__112basic_stringIcNS_11char_traitsIcEENS_9allocatorIcEEE6assignEPKc
Ltmp1:
Ltmp34:
## BB#1:                                ## %_ZNSt3__112basic_stringIcNS_11char_traitsIcEENS_9allocatorIcEEEaSEPKc.exit2.i.i
	.loc	5 1370 86 is_stmt 0     ## /Applications/Xcode.app/Contents/Developer/Toolchains/XcodeDefault.xctoolchain/usr/bin/../include/c++/v1/string:1370:86
Ltmp2:
Ltmp35:
	##DEBUG_VALUE: LIGHT:this <- RBX
	##DEBUG_VALUE: operator=:this <- R12
	leaq	L_.str57(%rip), %rsi
Ltmp36:
	##DEBUG_VALUE: operator=:__s <- RSI
	movq	%r12, %rdi
	callq	__ZNSt3__112basic_stringIcNS_11char_traitsIcEENS_9allocatorIcEEE6assignEPKc
Ltmp3:
Ltmp37:
## BB#2:                                ## %_ZN9ofxArtnetC1Ev.exit
	##DEBUG_VALUE: LIGHT:this <- RBX
	movq	%r12, -56(%rbp)         ## 8-byte Spill
	.loc	16 120 8 is_stmt 1      ## /Users/nobuhiro/Documents/source/openframeworks/of_v0.9.0_osx_release/apps/myApps/Gusha_Entrance/src/Light.cpp:120:8
	leaq	408(%rbx), %r12
Ltmp38:
	##DEBUG_VALUE: ~ofxUDPManager:this <- R12
	##DEBUG_VALUE: ~ofxUDPManager:this <- R12
	##DEBUG_VALUE: HasSocket:this <- R12
Ltmp5:
	movq	%r12, %rdi
	callq	__ZN13ofxUDPManagerC1Ev
Ltmp6:
Ltmp39:
## BB#3:
	##DEBUG_VALUE: LIGHT:this <- RBX
	movq	%r14, -48(%rbp)         ## 8-byte Spill
	leaq	480(%rbx), %r13
Ltmp40:
	##DEBUG_VALUE: ~ofxUDPManager:this <- R13
	##DEBUG_VALUE: ~ofxUDPManager:this <- R13
	##DEBUG_VALUE: HasSocket:this <- R13
Ltmp8:
	movq	%r13, %rdi
	callq	__ZN13ofxUDPManagerC1Ev
Ltmp9:
Ltmp41:
## BB#4:
	##DEBUG_VALUE: LIGHT:this <- RBX
	.loc	46 45 22                ## /Users/nobuhiro/Documents/source/openframeworks/of_v0.9.0_osx_release/apps/myApps/Gusha_Entrance/src/Light.h:45:22
	movaps	LCPI0_0(%rip), %xmm0    ## xmm0 = [1.000000e+00,1.000000e+00]
	movups	%xmm0, 592(%rbx)
Ltmp42:
	##DEBUG_VALUE: Reset:now <- 0.000000e+00
	.loc	46 63 9                 ## /Users/nobuhiro/Documents/source/openframeworks/of_v0.9.0_osx_release/apps/myApps/Gusha_Entrance/src/Light.h:63:9
	movl	$0, 576(%rbx)
	.loc	46 64 9                 ## /Users/nobuhiro/Documents/source/openframeworks/of_v0.9.0_osx_release/apps/myApps/Gusha_Entrance/src/Light.h:64:9
	movq	$0, 584(%rbx)
	.loc	46 65 17                ## /Users/nobuhiro/Documents/source/openframeworks/of_v0.9.0_osx_release/apps/myApps/Gusha_Entrance/src/Light.h:65:17
	movl	$0, 608(%rbx)
	.loc	46 66 18                ## /Users/nobuhiro/Documents/source/openframeworks/of_v0.9.0_osx_release/apps/myApps/Gusha_Entrance/src/Light.h:66:18
	movb	$0, 612(%rbx)
	.loc	46 67 13                ## /Users/nobuhiro/Documents/source/openframeworks/of_v0.9.0_osx_release/apps/myApps/Gusha_Entrance/src/Light.h:67:13
	movb	$0, 613(%rbx)
	.loc	46 68 13                ## /Users/nobuhiro/Documents/source/openframeworks/of_v0.9.0_osx_release/apps/myApps/Gusha_Entrance/src/Light.h:68:13
	movl	$0, 616(%rbx)
Ltmp43:
	.loc	46 45 22                ## /Users/nobuhiro/Documents/source/openframeworks/of_v0.9.0_osx_release/apps/myApps/Gusha_Entrance/src/Light.h:45:22
	movups	%xmm0, 640(%rbx)
	.loc	46 63 9                 ## /Users/nobuhiro/Documents/source/openframeworks/of_v0.9.0_osx_release/apps/myApps/Gusha_Entrance/src/Light.h:63:9
Ltmp44:
	movl	$0, 624(%rbx)
	.loc	46 64 9                 ## /Users/nobuhiro/Documents/source/openframeworks/of_v0.9.0_osx_release/apps/myApps/Gusha_Entrance/src/Light.h:64:9
	movq	$0, 632(%rbx)
	.loc	46 65 17                ## /Users/nobuhiro/Documents/source/openframeworks/of_v0.9.0_osx_release/apps/myApps/Gusha_Entrance/src/Light.h:65:17
	movl	$0, 656(%rbx)
	.loc	46 66 18                ## /Users/nobuhiro/Documents/source/openframeworks/of_v0.9.0_osx_release/apps/myApps/Gusha_Entrance/src/Light.h:66:18
	movb	$0, 660(%rbx)
	.loc	46 67 13                ## /Users/nobuhiro/Documents/source/openframeworks/of_v0.9.0_osx_release/apps/myApps/Gusha_Entrance/src/Light.h:67:13
	movb	$0, 661(%rbx)
	.loc	46 68 13                ## /Users/nobuhiro/Documents/source/openframeworks/of_v0.9.0_osx_release/apps/myApps/Gusha_Entrance/src/Light.h:68:13
	movl	$0, 664(%rbx)
Ltmp45:
	.loc	46 45 22                ## /Users/nobuhiro/Documents/source/openframeworks/of_v0.9.0_osx_release/apps/myApps/Gusha_Entrance/src/Light.h:45:22
	movups	%xmm0, 688(%rbx)
	.loc	46 63 9                 ## /Users/nobuhiro/Documents/source/openframeworks/of_v0.9.0_osx_release/apps/myApps/Gusha_Entrance/src/Light.h:63:9
Ltmp46:
	movl	$0, 672(%rbx)
	.loc	46 64 9                 ## /Users/nobuhiro/Documents/source/openframeworks/of_v0.9.0_osx_release/apps/myApps/Gusha_Entrance/src/Light.h:64:9
	movq	$0, 680(%rbx)
	.loc	46 65 17                ## /Users/nobuhiro/Documents/source/openframeworks/of_v0.9.0_osx_release/apps/myApps/Gusha_Entrance/src/Light.h:65:17
	movl	$0, 704(%rbx)
	.loc	46 66 18                ## /Users/nobuhiro/Documents/source/openframeworks/of_v0.9.0_osx_release/apps/myApps/Gusha_Entrance/src/Light.h:66:18
	movb	$0, 708(%rbx)
	.loc	46 67 13                ## /Users/nobuhiro/Documents/source/openframeworks/of_v0.9.0_osx_release/apps/myApps/Gusha_Entrance/src/Light.h:67:13
	movb	$0, 709(%rbx)
	.loc	46 68 13                ## /Users/nobuhiro/Documents/source/openframeworks/of_v0.9.0_osx_release/apps/myApps/Gusha_Entrance/src/Light.h:68:13
	movl	$0, 712(%rbx)
Ltmp47:
	.loc	46 45 22                ## /Users/nobuhiro/Documents/source/openframeworks/of_v0.9.0_osx_release/apps/myApps/Gusha_Entrance/src/Light.h:45:22
	movups	%xmm0, 736(%rbx)
	.loc	46 63 9                 ## /Users/nobuhiro/Documents/source/openframeworks/of_v0.9.0_osx_release/apps/myApps/Gusha_Entrance/src/Light.h:63:9
Ltmp48:
	movl	$0, 720(%rbx)
	.loc	46 64 9                 ## /Users/nobuhiro/Documents/source/openframeworks/of_v0.9.0_osx_release/apps/myApps/Gusha_Entrance/src/Light.h:64:9
	movq	$0, 728(%rbx)
	.loc	46 65 17                ## /Users/nobuhiro/Documents/source/openframeworks/of_v0.9.0_osx_release/apps/myApps/Gusha_Entrance/src/Light.h:65:17
	movl	$0, 752(%rbx)
	.loc	46 66 18                ## /Users/nobuhiro/Documents/source/openframeworks/of_v0.9.0_osx_release/apps/myApps/Gusha_Entrance/src/Light.h:66:18
	movb	$0, 756(%rbx)
	.loc	46 67 13                ## /Users/nobuhiro/Documents/source/openframeworks/of_v0.9.0_osx_release/apps/myApps/Gusha_Entrance/src/Light.h:67:13
	movb	$0, 757(%rbx)
	.loc	46 68 13                ## /Users/nobuhiro/Documents/source/openframeworks/of_v0.9.0_osx_release/apps/myApps/Gusha_Entrance/src/Light.h:68:13
	movl	$0, 760(%rbx)
Ltmp49:
	.loc	46 45 22                ## /Users/nobuhiro/Documents/source/openframeworks/of_v0.9.0_osx_release/apps/myApps/Gusha_Entrance/src/Light.h:45:22
	movups	%xmm0, 784(%rbx)
	.loc	46 63 9                 ## /Users/nobuhiro/Documents/source/openframeworks/of_v0.9.0_osx_release/apps/myApps/Gusha_Entrance/src/Light.h:63:9
Ltmp50:
	movl	$0, 768(%rbx)
	.loc	46 64 9                 ## /Users/nobuhiro/Documents/source/openframeworks/of_v0.9.0_osx_release/apps/myApps/Gusha_Entrance/src/Light.h:64:9
	movq	$0, 776(%rbx)
	.loc	46 65 17                ## /Users/nobuhiro/Documents/source/openframeworks/of_v0.9.0_osx_release/apps/myApps/Gusha_Entrance/src/Light.h:65:17
	movl	$0, 800(%rbx)
	.loc	46 66 18                ## /Users/nobuhiro/Documents/source/openframeworks/of_v0.9.0_osx_release/apps/myApps/Gusha_Entrance/src/Light.h:66:18
	movb	$0, 804(%rbx)
	.loc	46 67 13                ## /Users/nobuhiro/Documents/source/openframeworks/of_v0.9.0_osx_release/apps/myApps/Gusha_Entrance/src/Light.h:67:13
	movb	$0, 805(%rbx)
	.loc	46 68 13                ## /Users/nobuhiro/Documents/source/openframeworks/of_v0.9.0_osx_release/apps/myApps/Gusha_Entrance/src/Light.h:68:13
	movl	$0, 808(%rbx)
Ltmp51:
	.loc	46 45 22                ## /Users/nobuhiro/Documents/source/openframeworks/of_v0.9.0_osx_release/apps/myApps/Gusha_Entrance/src/Light.h:45:22
	movups	%xmm0, 832(%rbx)
Ltmp52:
	##DEBUG_VALUE: Reset:now <- 0.000000e+00
	.loc	46 63 9                 ## /Users/nobuhiro/Documents/source/openframeworks/of_v0.9.0_osx_release/apps/myApps/Gusha_Entrance/src/Light.h:63:9
	movl	$0, 816(%rbx)
	.loc	46 64 9                 ## /Users/nobuhiro/Documents/source/openframeworks/of_v0.9.0_osx_release/apps/myApps/Gusha_Entrance/src/Light.h:64:9
	movq	$0, 824(%rbx)
	.loc	46 65 17                ## /Users/nobuhiro/Documents/source/openframeworks/of_v0.9.0_osx_release/apps/myApps/Gusha_Entrance/src/Light.h:65:17
	movl	$0, 848(%rbx)
	.loc	46 66 18                ## /Users/nobuhiro/Documents/source/openframeworks/of_v0.9.0_osx_release/apps/myApps/Gusha_Entrance/src/Light.h:66:18
	movb	$0, 852(%rbx)
	.loc	46 67 13                ## /Users/nobuhiro/Documents/source/openframeworks/of_v0.9.0_osx_release/apps/myApps/Gusha_Entrance/src/Light.h:67:13
	movb	$0, 853(%rbx)
	.loc	46 68 13                ## /Users/nobuhiro/Documents/source/openframeworks/of_v0.9.0_osx_release/apps/myApps/Gusha_Entrance/src/Light.h:68:13
	movl	$0, 856(%rbx)
Ltmp53:
	.loc	46 45 22                ## /Users/nobuhiro/Documents/source/openframeworks/of_v0.9.0_osx_release/apps/myApps/Gusha_Entrance/src/Light.h:45:22
	movups	%xmm0, 880(%rbx)
Ltmp54:
	##DEBUG_VALUE: Reset:now <- 0.000000e+00
	.loc	46 63 9                 ## /Users/nobuhiro/Documents/source/openframeworks/of_v0.9.0_osx_release/apps/myApps/Gusha_Entrance/src/Light.h:63:9
	movl	$0, 864(%rbx)
	.loc	46 64 9                 ## /Users/nobuhiro/Documents/source/openframeworks/of_v0.9.0_osx_release/apps/myApps/Gusha_Entrance/src/Light.h:64:9
	movq	$0, 872(%rbx)
	.loc	46 65 17                ## /Users/nobuhiro/Documents/source/openframeworks/of_v0.9.0_osx_release/apps/myApps/Gusha_Entrance/src/Light.h:65:17
	movl	$0, 896(%rbx)
	.loc	46 66 18                ## /Users/nobuhiro/Documents/source/openframeworks/of_v0.9.0_osx_release/apps/myApps/Gusha_Entrance/src/Light.h:66:18
	movb	$0, 900(%rbx)
	.loc	46 67 13                ## /Users/nobuhiro/Documents/source/openframeworks/of_v0.9.0_osx_release/apps/myApps/Gusha_Entrance/src/Light.h:67:13
	movb	$0, 901(%rbx)
	.loc	46 68 13                ## /Users/nobuhiro/Documents/source/openframeworks/of_v0.9.0_osx_release/apps/myApps/Gusha_Entrance/src/Light.h:68:13
	movl	$0, 904(%rbx)
Ltmp55:
	.loc	34 452 7                ## /Applications/Xcode.app/Contents/Developer/Toolchains/XcodeDefault.xctoolchain/usr/bin/../include/c++/v1/vector:452:7
	movq	$0, 936(%rbx)
	movq	$0, 928(%rbx)
	movq	$0, 920(%rbx)
	movq	$0, 1016(%rbx)
	movq	$0, 1008(%rbx)
	movq	$0, 1000(%rbx)
	movq	$0, 1096(%rbx)
	movq	$0, 1088(%rbx)
	movq	$0, 1080(%rbx)
	movq	$0, 1176(%rbx)
	movq	$0, 1168(%rbx)
	movq	$0, 1160(%rbx)
	movq	$0, 1256(%rbx)
	movq	$0, 1248(%rbx)
	movq	$0, 1240(%rbx)
Ltmp56:
	.loc	34 452 7 is_stmt 0      ## /Applications/Xcode.app/Contents/Developer/Toolchains/XcodeDefault.xctoolchain/usr/bin/../include/c++/v1/vector:452:7
	movq	$0, 1336(%rbx)
	movq	$0, 1328(%rbx)
	movq	$0, 1320(%rbx)
Ltmp57:
	.loc	34 452 7                ## /Applications/Xcode.app/Contents/Developer/Toolchains/XcodeDefault.xctoolchain/usr/bin/../include/c++/v1/vector:452:7
	movq	$0, 1416(%rbx)
	movq	$0, 1408(%rbx)
	movq	$0, 1400(%rbx)
Ltmp58:
	.loc	16 120 8 is_stmt 1      ## /Users/nobuhiro/Documents/source/openframeworks/of_v0.9.0_osx_release/apps/myApps/Gusha_Entrance/src/Light.cpp:120:8
	leaq	1496(%rbx), %r14
Ltmp59:
	##DEBUG_VALUE: resize:__cs <- 0
	##DEBUG_VALUE: size:this <- R14
	##DEBUG_VALUE: resize:__sz <- 30
	##DEBUG_VALUE: resize:this <- R14
	##DEBUG_VALUE: vector:this <- R14
	##DEBUG_VALUE: vector:this <- R14
	##DEBUG_VALUE: ~vector:this <- R14
	##DEBUG_VALUE: ~vector:this <- R14
	.loc	18 154 4                ## /Users/nobuhiro/Documents/source/openframeworks/of_v0.9.0_osx_release/apps/myApps/Gusha_Entrance/src/L_Block.h:154:4
	movq	$0, 1512(%rbx)
	movq	$0, 1504(%rbx)
	movq	$0, 1496(%rbx)
	movq	$0, 1488(%rbx)
	movq	$0, 1480(%rbx)
	movq	$0, 1472(%rbx)
Ltmp60:
	.loc	34 1998 9               ## /Applications/Xcode.app/Contents/Developer/Toolchains/XcodeDefault.xctoolchain/usr/bin/../include/c++/v1/vector:1998:9
Ltmp11:
	movl	$30, %esi
	movq	%r14, %rdi
	callq	__ZNSt3__16vectorIiNS_9allocatorIiEEE8__appendEm
Ltmp12:
Ltmp61:
## BB#5:                                ## %_ZNSt3__16vectorIiNS_9allocatorIiEEE6resizeEm.exit
	.loc	16 125 1                ## /Users/nobuhiro/Documents/source/openframeworks/of_v0.9.0_osx_release/apps/myApps/Gusha_Entrance/src/Light.cpp:125:1
	addq	$24, %rsp
	popq	%rbx
	popq	%r12
	popq	%r13
	popq	%r14
	popq	%r15
	popq	%rbp
	retq
LBB0_6:
Ltmp4:
Ltmp62:
	##DEBUG_VALUE: LIGHT:this <- RBX
	movq	%rax, -64(%rbp)         ## 8-byte Spill
	.loc	42 42 5                 ## /Users/nobuhiro/Documents/source/openframeworks/of_v0.9.0_osx_release/addons/ofxArtnet/src/ofxArtnet.h:42:5
Ltmp63:
	movq	%r12, %rdi
	callq	__ZNSt3__112basic_stringIcNS_11char_traitsIcEENS_9allocatorIcEEED1Ev
	movq	%r14, %rdi
	jmp	LBB0_7
Ltmp64:
LBB0_47:
Ltmp7:
Ltmp65:
	##DEBUG_VALUE: LIGHT:this <- RBX
	movq	%r14, -48(%rbp)         ## 8-byte Spill
	movq	%rax, -64(%rbp)         ## 8-byte Spill
	jmp	LBB0_48
Ltmp66:
LBB0_43:
Ltmp10:
Ltmp67:
	##DEBUG_VALUE: LIGHT:this <- RBX
	movq	%rax, -64(%rbp)         ## 8-byte Spill
	jmp	LBB0_44
Ltmp68:
LBB0_8:
Ltmp13:
Ltmp69:
	##DEBUG_VALUE: LIGHT:this <- RBX
	##DEBUG_VALUE: ~vector:this <- R14
	##DEBUG_VALUE: ~vector:this <- R14
	movq	%rax, -64(%rbp)         ## 8-byte Spill
	.loc	34 469 9                ## /Applications/Xcode.app/Contents/Developer/Toolchains/XcodeDefault.xctoolchain/usr/bin/../include/c++/v1/vector:469:9
Ltmp70:
	movq	(%r14), %rdi
Ltmp71:
	##DEBUG_VALUE: __destruct_at_end:__new_last <- RDI
	.loc	34 469 18 is_stmt 0     ## /Applications/Xcode.app/Contents/Developer/Toolchains/XcodeDefault.xctoolchain/usr/bin/../include/c++/v1/vector:469:18
	testq	%rdi, %rdi
	je	LBB0_12
Ltmp72:
## BB#9:
	##DEBUG_VALUE: LIGHT:this <- RBX
	##DEBUG_VALUE: __destruct_at_end:__new_last <- RDI
	.loc	34 443 26 is_stmt 1     ## /Applications/Xcode.app/Contents/Developer/Toolchains/XcodeDefault.xctoolchain/usr/bin/../include/c++/v1/vector:443:26
	movq	1504(%rbx), %rax
	.loc	34 443 23 is_stmt 0     ## /Applications/Xcode.app/Contents/Developer/Toolchains/XcodeDefault.xctoolchain/usr/bin/../include/c++/v1/vector:443:23
	cmpq	%rdi, %rax
	je	LBB0_11
Ltmp73:
## BB#10:                               ## %.lr.ph.i.i.i.i.i
	##DEBUG_VALUE: LIGHT:this <- RBX
	##DEBUG_VALUE: __destruct_at_end:__new_last <- RDI
	.loc	34 368 29 is_stmt 1     ## /Applications/Xcode.app/Contents/Developer/Toolchains/XcodeDefault.xctoolchain/usr/bin/../include/c++/v1/vector:368:29
	leaq	-4(%rax), %rcx
	subq	%rdi, %rcx
	notq	%rcx
	andq	$-4, %rcx
	addq	%rax, %rcx
	.loc	34 444 68               ## /Applications/Xcode.app/Contents/Developer/Toolchains/XcodeDefault.xctoolchain/usr/bin/../include/c++/v1/vector:444:68
Ltmp74:
	movq	%rcx, 1504(%rbx)
Ltmp75:
LBB0_11:                                ## %_ZNSt3__113__vector_baseIiNS_9allocatorIiEEE5clearEv.exit.i.i.i
	##DEBUG_VALUE: LIGHT:this <- RBX
	.file	106 "/Applications/Xcode.app/Contents/Developer/Toolchains/XcodeDefault.xctoolchain/usr/bin/../include/c++/v1" "new"
	.loc	106 164 3               ## /Applications/Xcode.app/Contents/Developer/Toolchains/XcodeDefault.xctoolchain/usr/bin/../include/c++/v1/new:164:3
	callq	__ZdlPv
Ltmp76:
LBB0_12:                                ## %_ZNSt3__16vectorIiNS_9allocatorIiEEED1Ev.exit
	##DEBUG_VALUE: LIGHT:this <- RBX
	.loc	34 469 9                ## /Applications/Xcode.app/Contents/Developer/Toolchains/XcodeDefault.xctoolchain/usr/bin/../include/c++/v1/vector:469:9
	movq	1400(%rbx), %rdi
Ltmp77:
	##DEBUG_VALUE: __destruct_at_end:__new_last <- RDI
	.loc	34 469 18 is_stmt 0     ## /Applications/Xcode.app/Contents/Developer/Toolchains/XcodeDefault.xctoolchain/usr/bin/../include/c++/v1/vector:469:18
	testq	%rdi, %rdi
	je	LBB0_16
Ltmp78:
## BB#13:
	##DEBUG_VALUE: LIGHT:this <- RBX
	##DEBUG_VALUE: __destruct_at_end:__new_last <- RDI
	.loc	34 443 26 is_stmt 1     ## /Applications/Xcode.app/Contents/Developer/Toolchains/XcodeDefault.xctoolchain/usr/bin/../include/c++/v1/vector:443:26
	movq	1408(%rbx), %rax
	.loc	34 443 23 is_stmt 0     ## /Applications/Xcode.app/Contents/Developer/Toolchains/XcodeDefault.xctoolchain/usr/bin/../include/c++/v1/vector:443:23
	cmpq	%rdi, %rax
	je	LBB0_15
Ltmp79:
## BB#14:                               ## %.lr.ph.i.i.i.i.i.i.i9
	##DEBUG_VALUE: LIGHT:this <- RBX
	##DEBUG_VALUE: __destruct_at_end:__new_last <- RDI
	.loc	34 368 29 is_stmt 1     ## /Applications/Xcode.app/Contents/Developer/Toolchains/XcodeDefault.xctoolchain/usr/bin/../include/c++/v1/vector:368:29
	leaq	-4(%rax), %rcx
	subq	%rdi, %rcx
	notq	%rcx
	andq	$-4, %rcx
	addq	%rax, %rcx
	.loc	34 444 68               ## /Applications/Xcode.app/Contents/Developer/Toolchains/XcodeDefault.xctoolchain/usr/bin/../include/c++/v1/vector:444:68
Ltmp80:
	movq	%rcx, 1408(%rbx)
Ltmp81:
LBB0_15:                                ## %_ZNSt3__113__vector_baseIiNS_9allocatorIiEEE5clearEv.exit.i.i.i.i.i10
	##DEBUG_VALUE: LIGHT:this <- RBX
	.loc	106 164 3               ## /Applications/Xcode.app/Contents/Developer/Toolchains/XcodeDefault.xctoolchain/usr/bin/../include/c++/v1/new:164:3
	callq	__ZdlPv
Ltmp82:
LBB0_16:                                ## %_ZN21PARAM_FOR_LED_CONTROLD1Ev.exit11
	##DEBUG_VALUE: LIGHT:this <- RBX
	.loc	34 469 9                ## /Applications/Xcode.app/Contents/Developer/Toolchains/XcodeDefault.xctoolchain/usr/bin/../include/c++/v1/vector:469:9
	movq	1320(%rbx), %rdi
Ltmp83:
	##DEBUG_VALUE: __destruct_at_end:__new_last <- RDI
	.loc	34 469 18 is_stmt 0     ## /Applications/Xcode.app/Contents/Developer/Toolchains/XcodeDefault.xctoolchain/usr/bin/../include/c++/v1/vector:469:18
	testq	%rdi, %rdi
	je	LBB0_20
Ltmp84:
## BB#17:
	##DEBUG_VALUE: LIGHT:this <- RBX
	##DEBUG_VALUE: __destruct_at_end:__new_last <- RDI
	.loc	34 443 26 is_stmt 1     ## /Applications/Xcode.app/Contents/Developer/Toolchains/XcodeDefault.xctoolchain/usr/bin/../include/c++/v1/vector:443:26
	movq	1328(%rbx), %rax
	.loc	34 443 23 is_stmt 0     ## /Applications/Xcode.app/Contents/Developer/Toolchains/XcodeDefault.xctoolchain/usr/bin/../include/c++/v1/vector:443:23
	cmpq	%rdi, %rax
	je	LBB0_19
Ltmp85:
## BB#18:                               ## %.lr.ph.i.i.i.i.i.i.i14
	##DEBUG_VALUE: LIGHT:this <- RBX
	##DEBUG_VALUE: __destruct_at_end:__new_last <- RDI
	.loc	34 368 29 is_stmt 1     ## /Applications/Xcode.app/Contents/Developer/Toolchains/XcodeDefault.xctoolchain/usr/bin/../include/c++/v1/vector:368:29
	leaq	-4(%rax), %rcx
	subq	%rdi, %rcx
	notq	%rcx
	andq	$-4, %rcx
	addq	%rax, %rcx
	.loc	34 444 68               ## /Applications/Xcode.app/Contents/Developer/Toolchains/XcodeDefault.xctoolchain/usr/bin/../include/c++/v1/vector:444:68
Ltmp86:
	movq	%rcx, 1328(%rbx)
Ltmp87:
LBB0_19:                                ## %_ZNSt3__113__vector_baseIiNS_9allocatorIiEEE5clearEv.exit.i.i.i.i.i15
	##DEBUG_VALUE: LIGHT:this <- RBX
	.loc	106 164 3               ## /Applications/Xcode.app/Contents/Developer/Toolchains/XcodeDefault.xctoolchain/usr/bin/../include/c++/v1/new:164:3
	callq	__ZdlPv
Ltmp88:
LBB0_20:                                ## %_ZN21PARAM_FOR_LED_CONTROLD1Ev.exit16.preheader
	##DEBUG_VALUE: LIGHT:this <- RBX
	.loc	34 469 9                ## /Applications/Xcode.app/Contents/Developer/Toolchains/XcodeDefault.xctoolchain/usr/bin/../include/c++/v1/vector:469:9
	movq	1240(%rbx), %rdi
Ltmp89:
	##DEBUG_VALUE: __destruct_at_end:__new_last <- RDI
	.loc	34 469 18 is_stmt 0     ## /Applications/Xcode.app/Contents/Developer/Toolchains/XcodeDefault.xctoolchain/usr/bin/../include/c++/v1/vector:469:18
	testq	%rdi, %rdi
	je	LBB0_24
Ltmp90:
## BB#21:
	##DEBUG_VALUE: LIGHT:this <- RBX
	##DEBUG_VALUE: __destruct_at_end:__new_last <- RDI
	.loc	34 443 26 is_stmt 1     ## /Applications/Xcode.app/Contents/Developer/Toolchains/XcodeDefault.xctoolchain/usr/bin/../include/c++/v1/vector:443:26
	movq	1248(%rbx), %rax
	.loc	34 443 23 is_stmt 0     ## /Applications/Xcode.app/Contents/Developer/Toolchains/XcodeDefault.xctoolchain/usr/bin/../include/c++/v1/vector:443:23
	cmpq	%rdi, %rax
	je	LBB0_23
Ltmp91:
## BB#22:                               ## %.lr.ph.i.i.i.i.i.i.i19
	##DEBUG_VALUE: LIGHT:this <- RBX
	##DEBUG_VALUE: __destruct_at_end:__new_last <- RDI
	.loc	34 368 29 is_stmt 1     ## /Applications/Xcode.app/Contents/Developer/Toolchains/XcodeDefault.xctoolchain/usr/bin/../include/c++/v1/vector:368:29
	leaq	-4(%rax), %rcx
	subq	%rdi, %rcx
	notq	%rcx
	andq	$-4, %rcx
	addq	%rax, %rcx
	.loc	34 444 68               ## /Applications/Xcode.app/Contents/Developer/Toolchains/XcodeDefault.xctoolchain/usr/bin/../include/c++/v1/vector:444:68
Ltmp92:
	movq	%rcx, 1248(%rbx)
Ltmp93:
LBB0_23:                                ## %_ZNSt3__113__vector_baseIiNS_9allocatorIiEEE5clearEv.exit.i.i.i.i.i20
	##DEBUG_VALUE: LIGHT:this <- RBX
	.loc	106 164 3               ## /Applications/Xcode.app/Contents/Developer/Toolchains/XcodeDefault.xctoolchain/usr/bin/../include/c++/v1/new:164:3
	callq	__ZdlPv
Ltmp94:
LBB0_24:                                ## %_ZN21PARAM_FOR_LED_CONTROLD1Ev.exit21
	##DEBUG_VALUE: LIGHT:this <- RBX
	.loc	34 469 9                ## /Applications/Xcode.app/Contents/Developer/Toolchains/XcodeDefault.xctoolchain/usr/bin/../include/c++/v1/vector:469:9
	movq	1160(%rbx), %rdi
	.loc	34 469 18 is_stmt 0     ## /Applications/Xcode.app/Contents/Developer/Toolchains/XcodeDefault.xctoolchain/usr/bin/../include/c++/v1/vector:469:18
	testq	%rdi, %rdi
	je	LBB0_28
Ltmp95:
## BB#25:
	##DEBUG_VALUE: LIGHT:this <- RBX
	.loc	34 443 26 is_stmt 1     ## /Applications/Xcode.app/Contents/Developer/Toolchains/XcodeDefault.xctoolchain/usr/bin/../include/c++/v1/vector:443:26
	movq	1168(%rbx), %rax
	.loc	34 443 23 is_stmt 0     ## /Applications/Xcode.app/Contents/Developer/Toolchains/XcodeDefault.xctoolchain/usr/bin/../include/c++/v1/vector:443:23
	cmpq	%rdi, %rax
	je	LBB0_27
Ltmp96:
## BB#26:                               ## %.lr.ph.i.i.i.i.i.i.i19.1
	##DEBUG_VALUE: LIGHT:this <- RBX
	.loc	34 368 29 is_stmt 1     ## /Applications/Xcode.app/Contents/Developer/Toolchains/XcodeDefault.xctoolchain/usr/bin/../include/c++/v1/vector:368:29
	leaq	-4(%rax), %rcx
	subq	%rdi, %rcx
	notq	%rcx
	andq	$-4, %rcx
	addq	%rax, %rcx
	.loc	34 444 68               ## /Applications/Xcode.app/Contents/Developer/Toolchains/XcodeDefault.xctoolchain/usr/bin/../include/c++/v1/vector:444:68
Ltmp97:
	movq	%rcx, 1168(%rbx)
Ltmp98:
LBB0_27:                                ## %_ZNSt3__113__vector_baseIiNS_9allocatorIiEEE5clearEv.exit.i.i.i.i.i20.1
	##DEBUG_VALUE: LIGHT:this <- RBX
	.loc	106 164 3               ## /Applications/Xcode.app/Contents/Developer/Toolchains/XcodeDefault.xctoolchain/usr/bin/../include/c++/v1/new:164:3
	callq	__ZdlPv
Ltmp99:
LBB0_28:                                ## %_ZN21PARAM_FOR_LED_CONTROLD1Ev.exit21.1
	##DEBUG_VALUE: LIGHT:this <- RBX
	.loc	34 469 9                ## /Applications/Xcode.app/Contents/Developer/Toolchains/XcodeDefault.xctoolchain/usr/bin/../include/c++/v1/vector:469:9
	movq	1080(%rbx), %rdi
	.loc	34 469 18 is_stmt 0     ## /Applications/Xcode.app/Contents/Developer/Toolchains/XcodeDefault.xctoolchain/usr/bin/../include/c++/v1/vector:469:18
	testq	%rdi, %rdi
	je	LBB0_32
Ltmp100:
## BB#29:
	##DEBUG_VALUE: LIGHT:this <- RBX
	.loc	34 443 26 is_stmt 1     ## /Applications/Xcode.app/Contents/Developer/Toolchains/XcodeDefault.xctoolchain/usr/bin/../include/c++/v1/vector:443:26
	movq	1088(%rbx), %rax
	.loc	34 443 23 is_stmt 0     ## /Applications/Xcode.app/Contents/Developer/Toolchains/XcodeDefault.xctoolchain/usr/bin/../include/c++/v1/vector:443:23
	cmpq	%rdi, %rax
	je	LBB0_31
Ltmp101:
## BB#30:                               ## %.lr.ph.i.i.i.i.i.i.i19.2
	##DEBUG_VALUE: LIGHT:this <- RBX
	.loc	34 368 29 is_stmt 1     ## /Applications/Xcode.app/Contents/Developer/Toolchains/XcodeDefault.xctoolchain/usr/bin/../include/c++/v1/vector:368:29
	leaq	-4(%rax), %rcx
	subq	%rdi, %rcx
	notq	%rcx
	andq	$-4, %rcx
	addq	%rax, %rcx
	.loc	34 444 68               ## /Applications/Xcode.app/Contents/Developer/Toolchains/XcodeDefault.xctoolchain/usr/bin/../include/c++/v1/vector:444:68
Ltmp102:
	movq	%rcx, 1088(%rbx)
Ltmp103:
LBB0_31:                                ## %_ZNSt3__113__vector_baseIiNS_9allocatorIiEEE5clearEv.exit.i.i.i.i.i20.2
	##DEBUG_VALUE: LIGHT:this <- RBX
	.loc	106 164 3               ## /Applications/Xcode.app/Contents/Developer/Toolchains/XcodeDefault.xctoolchain/usr/bin/../include/c++/v1/new:164:3
	callq	__ZdlPv
Ltmp104:
LBB0_32:                                ## %_ZN21PARAM_FOR_LED_CONTROLD1Ev.exit21.2
	##DEBUG_VALUE: LIGHT:this <- RBX
	.loc	34 469 9                ## /Applications/Xcode.app/Contents/Developer/Toolchains/XcodeDefault.xctoolchain/usr/bin/../include/c++/v1/vector:469:9
	movq	1000(%rbx), %rdi
	.loc	34 469 18 is_stmt 0     ## /Applications/Xcode.app/Contents/Developer/Toolchains/XcodeDefault.xctoolchain/usr/bin/../include/c++/v1/vector:469:18
	testq	%rdi, %rdi
	je	LBB0_36
Ltmp105:
## BB#33:
	##DEBUG_VALUE: LIGHT:this <- RBX
	.loc	34 443 26 is_stmt 1     ## /Applications/Xcode.app/Contents/Developer/Toolchains/XcodeDefault.xctoolchain/usr/bin/../include/c++/v1/vector:443:26
	movq	1008(%rbx), %rax
	.loc	34 443 23 is_stmt 0     ## /Applications/Xcode.app/Contents/Developer/Toolchains/XcodeDefault.xctoolchain/usr/bin/../include/c++/v1/vector:443:23
	cmpq	%rdi, %rax
	je	LBB0_35
Ltmp106:
## BB#34:                               ## %.lr.ph.i.i.i.i.i.i.i19.3
	##DEBUG_VALUE: LIGHT:this <- RBX
	.loc	34 368 29 is_stmt 1     ## /Applications/Xcode.app/Contents/Developer/Toolchains/XcodeDefault.xctoolchain/usr/bin/../include/c++/v1/vector:368:29
	leaq	-4(%rax), %rcx
	subq	%rdi, %rcx
	notq	%rcx
	andq	$-4, %rcx
	addq	%rax, %rcx
	.loc	34 444 68               ## /Applications/Xcode.app/Contents/Developer/Toolchains/XcodeDefault.xctoolchain/usr/bin/../include/c++/v1/vector:444:68
Ltmp107:
	movq	%rcx, 1008(%rbx)
Ltmp108:
LBB0_35:                                ## %_ZNSt3__113__vector_baseIiNS_9allocatorIiEEE5clearEv.exit.i.i.i.i.i20.3
	##DEBUG_VALUE: LIGHT:this <- RBX
	.loc	106 164 3               ## /Applications/Xcode.app/Contents/Developer/Toolchains/XcodeDefault.xctoolchain/usr/bin/../include/c++/v1/new:164:3
	callq	__ZdlPv
Ltmp109:
LBB0_36:                                ## %_ZN21PARAM_FOR_LED_CONTROLD1Ev.exit21.3
	##DEBUG_VALUE: LIGHT:this <- RBX
	.loc	34 469 9                ## /Applications/Xcode.app/Contents/Developer/Toolchains/XcodeDefault.xctoolchain/usr/bin/../include/c++/v1/vector:469:9
	movq	920(%rbx), %rdi
	.loc	34 469 18 is_stmt 0     ## /Applications/Xcode.app/Contents/Developer/Toolchains/XcodeDefault.xctoolchain/usr/bin/../include/c++/v1/vector:469:18
	testq	%rdi, %rdi
	je	LBB0_40
Ltmp110:
## BB#37:
	##DEBUG_VALUE: LIGHT:this <- RBX
	.loc	34 443 26 is_stmt 1     ## /Applications/Xcode.app/Contents/Developer/Toolchains/XcodeDefault.xctoolchain/usr/bin/../include/c++/v1/vector:443:26
	movq	928(%rbx), %rax
	.loc	34 443 23 is_stmt 0     ## /Applications/Xcode.app/Contents/Developer/Toolchains/XcodeDefault.xctoolchain/usr/bin/../include/c++/v1/vector:443:23
	cmpq	%rdi, %rax
	je	LBB0_39
Ltmp111:
## BB#38:                               ## %.lr.ph.i.i.i.i.i.i.i19.4
	##DEBUG_VALUE: LIGHT:this <- RBX
	.loc	34 368 29 is_stmt 1     ## /Applications/Xcode.app/Contents/Developer/Toolchains/XcodeDefault.xctoolchain/usr/bin/../include/c++/v1/vector:368:29
	leaq	-4(%rax), %rcx
	subq	%rdi, %rcx
	notq	%rcx
	andq	$-4, %rcx
	addq	%rax, %rcx
	.loc	34 444 68               ## /Applications/Xcode.app/Contents/Developer/Toolchains/XcodeDefault.xctoolchain/usr/bin/../include/c++/v1/vector:444:68
Ltmp112:
	movq	%rcx, 928(%rbx)
Ltmp113:
LBB0_39:                                ## %_ZNSt3__113__vector_baseIiNS_9allocatorIiEEE5clearEv.exit.i.i.i.i.i20.4
	##DEBUG_VALUE: LIGHT:this <- RBX
	.loc	106 164 3               ## /Applications/Xcode.app/Contents/Developer/Toolchains/XcodeDefault.xctoolchain/usr/bin/../include/c++/v1/new:164:3
	callq	__ZdlPv
Ltmp114:
LBB0_40:                                ## %_ZN21PARAM_FOR_LED_CONTROLD1Ev.exit21.4
	##DEBUG_VALUE: LIGHT:this <- RBX
	.loc	47 121 2                ## ../../../addons/ofxNetwork/src/ofxUDPManager.h:121:2
	movq	__ZTV13ofxUDPManager@GOTPCREL(%rip), %rax
	addq	$16, %rax
	movq	%rax, 480(%rbx)
	.loc	47 125 35               ## ../../../addons/ofxNetwork/src/ofxUDPManager.h:125:35
Ltmp115:
	movl	488(%rbx), %eax
	.loc	47 125 45 is_stmt 0     ## ../../../addons/ofxNetwork/src/ofxUDPManager.h:125:45
	incl	%eax
	cmpl	$1, %eax
	jbe	LBB0_44
Ltmp116:
## BB#41:
	.loc	47 122 20 is_stmt 1     ## ../../../addons/ofxNetwork/src/ofxUDPManager.h:122:20
Ltmp14:
Ltmp117:
	##DEBUG_VALUE: LIGHT:this <- RBX
	movq	%r13, %rdi
	callq	__ZN13ofxUDPManager5CloseEv
Ltmp15:
Ltmp118:
LBB0_44:                                ## %_ZN13ofxUDPManagerD1Ev.exit24
	##DEBUG_VALUE: LIGHT:this <- RBX
	.loc	47 121 2                ## ../../../addons/ofxNetwork/src/ofxUDPManager.h:121:2
	movq	__ZTV13ofxUDPManager@GOTPCREL(%rip), %rax
	addq	$16, %rax
	movq	%rax, 408(%rbx)
	.loc	47 125 35               ## ../../../addons/ofxNetwork/src/ofxUDPManager.h:125:35
Ltmp119:
	movl	416(%rbx), %eax
	.loc	47 125 45 is_stmt 0     ## ../../../addons/ofxNetwork/src/ofxUDPManager.h:125:45
	incl	%eax
Ltmp120:
	.loc	47 122 7 is_stmt 1      ## ../../../addons/ofxNetwork/src/ofxUDPManager.h:122:7
	cmpl	$2, %eax
	jb	LBB0_48
Ltmp121:
## BB#45:
	.loc	47 122 20 is_stmt 0     ## ../../../addons/ofxNetwork/src/ofxUDPManager.h:122:20
Ltmp17:
Ltmp122:
	##DEBUG_VALUE: LIGHT:this <- RBX
	movq	%r12, %rdi
	callq	__ZN13ofxUDPManager5CloseEv
Ltmp18:
Ltmp123:
LBB0_48:                                ## %_ZN13ofxUDPManagerD1Ev.exit
	##DEBUG_VALUE: LIGHT:this <- RBX
	.loc	42 45 5 is_stmt 1       ## /Users/nobuhiro/Documents/source/openframeworks/of_v0.9.0_osx_release/addons/ofxArtnet/src/ofxArtnet.h:45:5
	movq	%r15, (%rbx)
	.loc	42 47 5                 ## /Users/nobuhiro/Documents/source/openframeworks/of_v0.9.0_osx_release/addons/ofxArtnet/src/ofxArtnet.h:47:5
Ltmp124:
	movq	-56(%rbp), %rdi         ## 8-byte Reload
	callq	__ZNSt3__112basic_stringIcNS_11char_traitsIcEENS_9allocatorIcEEED1Ev
	movq	-48(%rbp), %rdi         ## 8-byte Reload
Ltmp125:
LBB0_7:                                 ## %unwind_resume
	.loc	42 42 5                 ## /Users/nobuhiro/Documents/source/openframeworks/of_v0.9.0_osx_release/addons/ofxArtnet/src/ofxArtnet.h:42:5
	callq	__ZNSt3__112basic_stringIcNS_11char_traitsIcEENS_9allocatorIcEEED1Ev
	movq	%rbx, %rdi
	callq	__ZN8ofThreadD2Ev
	movq	-64(%rbp), %rdi         ## 8-byte Reload
	callq	__Unwind_Resume
Ltmp126:
LBB0_46:
Ltmp19:
	.loc	47 122 7                ## ../../../addons/ofxNetwork/src/ofxUDPManager.h:122:7
Ltmp127:
	movq	%rax, %rdi
	callq	___clang_call_terminate
Ltmp128:
LBB0_42:
Ltmp16:
	.loc	47 122 7 is_stmt 0      ## ../../../addons/ofxNetwork/src/ofxUDPManager.h:122:7
Ltmp129:
	movq	%rax, %rdi
	callq	___clang_call_terminate
Ltmp130:
Lfunc_end0:
	.cfi_endproc
	.section	__TEXT,__gcc_except_tab
	.align	2
GCC_except_table0:
Lexception0:
	.byte	255                     ## @LPStart Encoding = omit
	.byte	155                     ## @TType Encoding = indirect pcrel sdata4
	.asciz	"\360"                  ## @TType base offset
	.byte	3                       ## Call site Encoding = udata4
	.byte	104                     ## Call site table length
Lset0 = Lfunc_begin0-Lfunc_begin0       ## >> Call Site 1 <<
	.long	Lset0
Lset1 = Ltmp0-Lfunc_begin0              ##   Call between Lfunc_begin0 and Ltmp0
	.long	Lset1
	.long	0                       ##     has no landing pad
	.byte	0                       ##   On action: cleanup
Lset2 = Ltmp0-Lfunc_begin0              ## >> Call Site 2 <<
	.long	Lset2
Lset3 = Ltmp3-Ltmp0                     ##   Call between Ltmp0 and Ltmp3
	.long	Lset3
Lset4 = Ltmp4-Lfunc_begin0              ##     jumps to Ltmp4
	.long	Lset4
	.byte	0                       ##   On action: cleanup
Lset5 = Ltmp5-Lfunc_begin0              ## >> Call Site 3 <<
	.long	Lset5
Lset6 = Ltmp6-Ltmp5                     ##   Call between Ltmp5 and Ltmp6
	.long	Lset6
Lset7 = Ltmp7-Lfunc_begin0              ##     jumps to Ltmp7
	.long	Lset7
	.byte	0                       ##   On action: cleanup
Lset8 = Ltmp8-Lfunc_begin0              ## >> Call Site 4 <<
	.long	Lset8
Lset9 = Ltmp9-Ltmp8                     ##   Call between Ltmp8 and Ltmp9
	.long	Lset9
Lset10 = Ltmp10-Lfunc_begin0            ##     jumps to Ltmp10
	.long	Lset10
	.byte	0                       ##   On action: cleanup
Lset11 = Ltmp11-Lfunc_begin0            ## >> Call Site 5 <<
	.long	Lset11
Lset12 = Ltmp12-Ltmp11                  ##   Call between Ltmp11 and Ltmp12
	.long	Lset12
Lset13 = Ltmp13-Lfunc_begin0            ##     jumps to Ltmp13
	.long	Lset13
	.byte	0                       ##   On action: cleanup
Lset14 = Ltmp14-Lfunc_begin0            ## >> Call Site 6 <<
	.long	Lset14
Lset15 = Ltmp15-Ltmp14                  ##   Call between Ltmp14 and Ltmp15
	.long	Lset15
Lset16 = Ltmp16-Lfunc_begin0            ##     jumps to Ltmp16
	.long	Lset16
	.byte	1                       ##   On action: 1
Lset17 = Ltmp17-Lfunc_begin0            ## >> Call Site 7 <<
	.long	Lset17
Lset18 = Ltmp18-Ltmp17                  ##   Call between Ltmp17 and Ltmp18
	.long	Lset18
Lset19 = Ltmp19-Lfunc_begin0            ##     jumps to Ltmp19
	.long	Lset19
	.byte	1                       ##   On action: 1
Lset20 = Ltmp18-Lfunc_begin0            ## >> Call Site 8 <<
	.long	Lset20
Lset21 = Lfunc_end0-Ltmp18              ##   Call between Ltmp18 and Lfunc_end0
	.long	Lset21
	.long	0                       ##     has no landing pad
	.byte	0                       ##   On action: cleanup
	.byte	1                       ## >> Action Record 1 <<
                                        ##   Catch TypeInfo 1
	.byte	0                       ##   No further actions
                                        ## >> Catch TypeInfos <<
	.long	0                       ## TypeInfo 1
	.align	2

	.section	__TEXT,__textcoal_nt,coalesced,pure_instructions
	.globl	__ZN13ofxUDPManagerD1Ev
	.weak_def_can_be_hidden	__ZN13ofxUDPManagerD1Ev
	.align	4, 0x90
__ZN13ofxUDPManagerD1Ev:                ## @_ZN13ofxUDPManagerD1Ev
Lfunc_begin1:
	.loc	47 121 0 is_stmt 1      ## ../../../addons/ofxNetwork/src/ofxUDPManager.h:121:0
	.cfi_startproc
	.cfi_personality 155, ___gxx_personality_v0
	.cfi_lsda 16, Lexception1
## BB#0:
	pushq	%rbp
Ltmp134:
	.cfi_def_cfa_offset 16
Ltmp135:
	.cfi_offset %rbp, -16
	movq	%rsp, %rbp
Ltmp136:
	.cfi_def_cfa_register %rbp
	##DEBUG_VALUE: ~ofxUDPManager:this <- RDI
Ltmp137:
	##DEBUG_VALUE: ~ofxUDPManager:this <- RDI
	.loc	47 121 2 prologue_end   ## ../../../addons/ofxNetwork/src/ofxUDPManager.h:121:2
	movq	__ZTV13ofxUDPManager@GOTPCREL(%rip), %rax
	addq	$16, %rax
	movq	%rax, (%rdi)
Ltmp138:
	##DEBUG_VALUE: HasSocket:this <- RDI
	.loc	47 125 35               ## ../../../addons/ofxNetwork/src/ofxUDPManager.h:125:35
	movl	8(%rdi), %eax
	.loc	47 125 45 is_stmt 0     ## ../../../addons/ofxNetwork/src/ofxUDPManager.h:125:45
	incl	%eax
Ltmp139:
	.loc	47 122 7 is_stmt 1      ## ../../../addons/ofxNetwork/src/ofxUDPManager.h:122:7
	cmpl	$2, %eax
	jb	LBB1_2
Ltmp140:
## BB#1:
	.loc	47 122 20 is_stmt 0     ## ../../../addons/ofxNetwork/src/ofxUDPManager.h:122:20
Ltmp131:
Ltmp141:
	##DEBUG_VALUE: ~ofxUDPManager:this <- RDI
	##DEBUG_VALUE: ~ofxUDPManager:this <- RDI
	callq	__ZN13ofxUDPManager5CloseEv
Ltmp132:
Ltmp142:
LBB1_2:                                 ## %_ZN13ofxUDPManagerD2Ev.exit
	.loc	47 123 2 is_stmt 1      ## ../../../addons/ofxNetwork/src/ofxUDPManager.h:123:2
	popq	%rbp
	retq
LBB1_3:
Ltmp133:
	.loc	47 122 7                ## ../../../addons/ofxNetwork/src/ofxUDPManager.h:122:7
Ltmp143:
	movq	%rax, %rdi
	callq	___clang_call_terminate
Ltmp144:
Lfunc_end1:
	.cfi_endproc
	.section	__TEXT,__gcc_except_tab
	.align	2
GCC_except_table1:
Lexception1:
	.byte	255                     ## @LPStart Encoding = omit
	.byte	155                     ## @TType Encoding = indirect pcrel sdata4
	.byte	21                      ## @TType base offset
	.byte	3                       ## Call site Encoding = udata4
	.byte	13                      ## Call site table length
Lset22 = Ltmp131-Lfunc_begin1           ## >> Call Site 1 <<
	.long	Lset22
Lset23 = Ltmp132-Ltmp131                ##   Call between Ltmp131 and Ltmp132
	.long	Lset23
Lset24 = Ltmp133-Lfunc_begin1           ##     jumps to Ltmp133
	.long	Lset24
	.byte	1                       ##   On action: 1
	.byte	1                       ## >> Action Record 1 <<
                                        ##   Catch TypeInfo 1
	.byte	0                       ##   No further actions
                                        ## >> Catch TypeInfos <<
	.long	0                       ## TypeInfo 1
	.align	2

	.section	__TEXT,__text,regular,pure_instructions
	.globl	__ZN5LIGHTC1Ev
	.align	4, 0x90
__ZN5LIGHTC1Ev:                         ## @_ZN5LIGHTC1Ev
Lfunc_begin2:
	.loc	16 123 0                ## /Users/nobuhiro/Documents/source/openframeworks/of_v0.9.0_osx_release/apps/myApps/Gusha_Entrance/src/Light.cpp:123:0
	.cfi_startproc
## BB#0:
	pushq	%rbp
Ltmp145:
	.cfi_def_cfa_offset 16
Ltmp146:
	.cfi_offset %rbp, -16
	movq	%rsp, %rbp
Ltmp147:
	.cfi_def_cfa_register %rbp
	##DEBUG_VALUE: LIGHT:this <- RDI
	.loc	16 123 1 prologue_end   ## /Users/nobuhiro/Documents/source/openframeworks/of_v0.9.0_osx_release/apps/myApps/Gusha_Entrance/src/Light.cpp:123:1
Ltmp148:
	popq	%rbp
	.loc	16 0 0                  ## /Users/nobuhiro/Documents/source/openframeworks/of_v0.9.0_osx_release/apps/myApps/Gusha_Entrance/src/Light.cpp:0:0
	jmp	__ZN5LIGHTC2Ev          ## TAILCALL
Ltmp149:
Lfunc_end2:
	.cfi_endproc

	.globl	__ZN5LIGHTD2Ev
	.align	4, 0x90
__ZN5LIGHTD2Ev:                         ## @_ZN5LIGHTD2Ev
Lfunc_begin3:
	.loc	16 130 0                ## /Users/nobuhiro/Documents/source/openframeworks/of_v0.9.0_osx_release/apps/myApps/Gusha_Entrance/src/Light.cpp:130:0
	.cfi_startproc
	.cfi_personality 155, ___gxx_personality_v0
	.cfi_lsda 16, Lexception3
## BB#0:
	pushq	%rbp
Ltmp165:
	.cfi_def_cfa_offset 16
Ltmp166:
	.cfi_offset %rbp, -16
	movq	%rsp, %rbp
Ltmp167:
	.cfi_def_cfa_register %rbp
	pushq	%r15
	pushq	%r14
	pushq	%r12
	pushq	%rbx
Ltmp168:
	.cfi_offset %rbx, -48
Ltmp169:
	.cfi_offset %r12, -40
Ltmp170:
	.cfi_offset %r14, -32
Ltmp171:
	.cfi_offset %r15, -24
	##DEBUG_VALUE: ~LIGHT:this <- RDI
	movq	%rdi, %r12
Ltmp172:
	##DEBUG_VALUE: ~LIGHT:this <- R12
	.loc	16 135 2 prologue_end   ## /Users/nobuhiro/Documents/source/openframeworks/of_v0.9.0_osx_release/apps/myApps/Gusha_Entrance/src/Light.cpp:135:2
Ltmp150:
                                        ## kill: RDI<def> R12<kill>
	callq	__ZN5LIGHT22Send_AllZero_to_AllOdeEv
Ltmp151:
Ltmp173:
## BB#1:
	##DEBUG_VALUE: ~LIGHT:this <- R12
	.loc	34 469 9                ## /Applications/Xcode.app/Contents/Developer/Toolchains/XcodeDefault.xctoolchain/usr/bin/../include/c++/v1/vector:469:9
	movq	1496(%r12), %rdi
Ltmp174:
	##DEBUG_VALUE: __destruct_at_end:__new_last <- RDI
	.loc	34 469 18 is_stmt 0     ## /Applications/Xcode.app/Contents/Developer/Toolchains/XcodeDefault.xctoolchain/usr/bin/../include/c++/v1/vector:469:18
	testq	%rdi, %rdi
	je	LBB3_5
Ltmp175:
## BB#2:
	##DEBUG_VALUE: ~LIGHT:this <- R12
	##DEBUG_VALUE: __destruct_at_end:__new_last <- RDI
	.loc	34 443 26 is_stmt 1     ## /Applications/Xcode.app/Contents/Developer/Toolchains/XcodeDefault.xctoolchain/usr/bin/../include/c++/v1/vector:443:26
	movq	1504(%r12), %rax
	.loc	34 443 23 is_stmt 0     ## /Applications/Xcode.app/Contents/Developer/Toolchains/XcodeDefault.xctoolchain/usr/bin/../include/c++/v1/vector:443:23
	cmpq	%rdi, %rax
	je	LBB3_4
Ltmp176:
## BB#3:                                ## %.lr.ph.i.i.i.i.i
	##DEBUG_VALUE: ~LIGHT:this <- R12
	##DEBUG_VALUE: __destruct_at_end:__new_last <- RDI
	.loc	34 368 29 is_stmt 1     ## /Applications/Xcode.app/Contents/Developer/Toolchains/XcodeDefault.xctoolchain/usr/bin/../include/c++/v1/vector:368:29
	leaq	-4(%rax), %rcx
	subq	%rdi, %rcx
	notq	%rcx
	andq	$-4, %rcx
	addq	%rax, %rcx
	.loc	34 444 68               ## /Applications/Xcode.app/Contents/Developer/Toolchains/XcodeDefault.xctoolchain/usr/bin/../include/c++/v1/vector:444:68
Ltmp177:
	movq	%rcx, 1504(%r12)
Ltmp178:
LBB3_4:                                 ## %_ZNSt3__113__vector_baseIiNS_9allocatorIiEEE5clearEv.exit.i.i.i
	##DEBUG_VALUE: ~LIGHT:this <- R12
	.loc	106 164 3               ## /Applications/Xcode.app/Contents/Developer/Toolchains/XcodeDefault.xctoolchain/usr/bin/../include/c++/v1/new:164:3
	callq	__ZdlPv
Ltmp179:
LBB3_5:                                 ## %_ZNSt3__16vectorIiNS_9allocatorIiEEED1Ev.exit
	##DEBUG_VALUE: ~LIGHT:this <- R12
	.loc	34 469 9                ## /Applications/Xcode.app/Contents/Developer/Toolchains/XcodeDefault.xctoolchain/usr/bin/../include/c++/v1/vector:469:9
	movq	1400(%r12), %rdi
Ltmp180:
	##DEBUG_VALUE: __destruct_at_end:__new_last <- RDI
	.loc	34 469 18 is_stmt 0     ## /Applications/Xcode.app/Contents/Developer/Toolchains/XcodeDefault.xctoolchain/usr/bin/../include/c++/v1/vector:469:18
	testq	%rdi, %rdi
	je	LBB3_9
Ltmp181:
## BB#6:
	##DEBUG_VALUE: ~LIGHT:this <- R12
	##DEBUG_VALUE: __destruct_at_end:__new_last <- RDI
	.loc	34 443 26 is_stmt 1     ## /Applications/Xcode.app/Contents/Developer/Toolchains/XcodeDefault.xctoolchain/usr/bin/../include/c++/v1/vector:443:26
	movq	1408(%r12), %rax
	.loc	34 443 23 is_stmt 0     ## /Applications/Xcode.app/Contents/Developer/Toolchains/XcodeDefault.xctoolchain/usr/bin/../include/c++/v1/vector:443:23
	cmpq	%rdi, %rax
	je	LBB3_8
Ltmp182:
## BB#7:                                ## %.lr.ph.i.i.i.i.i.i.i
	##DEBUG_VALUE: ~LIGHT:this <- R12
	##DEBUG_VALUE: __destruct_at_end:__new_last <- RDI
	.loc	34 368 29 is_stmt 1     ## /Applications/Xcode.app/Contents/Developer/Toolchains/XcodeDefault.xctoolchain/usr/bin/../include/c++/v1/vector:368:29
	leaq	-4(%rax), %rcx
	subq	%rdi, %rcx
	notq	%rcx
	andq	$-4, %rcx
	addq	%rax, %rcx
	.loc	34 444 68               ## /Applications/Xcode.app/Contents/Developer/Toolchains/XcodeDefault.xctoolchain/usr/bin/../include/c++/v1/vector:444:68
Ltmp183:
	movq	%rcx, 1408(%r12)
Ltmp184:
LBB3_8:                                 ## %_ZNSt3__113__vector_baseIiNS_9allocatorIiEEE5clearEv.exit.i.i.i.i.i
	##DEBUG_VALUE: ~LIGHT:this <- R12
	.loc	106 164 3               ## /Applications/Xcode.app/Contents/Developer/Toolchains/XcodeDefault.xctoolchain/usr/bin/../include/c++/v1/new:164:3
	callq	__ZdlPv
Ltmp185:
LBB3_9:                                 ## %_ZN21PARAM_FOR_LED_CONTROLD1Ev.exit
	##DEBUG_VALUE: ~LIGHT:this <- R12
	.loc	34 469 9                ## /Applications/Xcode.app/Contents/Developer/Toolchains/XcodeDefault.xctoolchain/usr/bin/../include/c++/v1/vector:469:9
	movq	1320(%r12), %rdi
Ltmp186:
	##DEBUG_VALUE: __destruct_at_end:__new_last <- RDI
	.loc	34 469 18 is_stmt 0     ## /Applications/Xcode.app/Contents/Developer/Toolchains/XcodeDefault.xctoolchain/usr/bin/../include/c++/v1/vector:469:18
	testq	%rdi, %rdi
	je	LBB3_13
Ltmp187:
## BB#10:
	##DEBUG_VALUE: ~LIGHT:this <- R12
	##DEBUG_VALUE: __destruct_at_end:__new_last <- RDI
	.loc	34 443 26 is_stmt 1     ## /Applications/Xcode.app/Contents/Developer/Toolchains/XcodeDefault.xctoolchain/usr/bin/../include/c++/v1/vector:443:26
	movq	1328(%r12), %rax
	.loc	34 443 23 is_stmt 0     ## /Applications/Xcode.app/Contents/Developer/Toolchains/XcodeDefault.xctoolchain/usr/bin/../include/c++/v1/vector:443:23
	cmpq	%rdi, %rax
	je	LBB3_12
Ltmp188:
## BB#11:                               ## %.lr.ph.i.i.i.i.i.i.i3
	##DEBUG_VALUE: ~LIGHT:this <- R12
	##DEBUG_VALUE: __destruct_at_end:__new_last <- RDI
	.loc	34 368 29 is_stmt 1     ## /Applications/Xcode.app/Contents/Developer/Toolchains/XcodeDefault.xctoolchain/usr/bin/../include/c++/v1/vector:368:29
	leaq	-4(%rax), %rcx
	subq	%rdi, %rcx
	notq	%rcx
	andq	$-4, %rcx
	addq	%rax, %rcx
	.loc	34 444 68               ## /Applications/Xcode.app/Contents/Developer/Toolchains/XcodeDefault.xctoolchain/usr/bin/../include/c++/v1/vector:444:68
Ltmp189:
	movq	%rcx, 1328(%r12)
Ltmp190:
LBB3_12:                                ## %_ZNSt3__113__vector_baseIiNS_9allocatorIiEEE5clearEv.exit.i.i.i.i.i4
	##DEBUG_VALUE: ~LIGHT:this <- R12
	.loc	106 164 3               ## /Applications/Xcode.app/Contents/Developer/Toolchains/XcodeDefault.xctoolchain/usr/bin/../include/c++/v1/new:164:3
	callq	__ZdlPv
Ltmp191:
LBB3_13:                                ## %_ZN21PARAM_FOR_LED_CONTROLD1Ev.exit5
	##DEBUG_VALUE: ~LIGHT:this <- R12
	.loc	34 469 9                ## /Applications/Xcode.app/Contents/Developer/Toolchains/XcodeDefault.xctoolchain/usr/bin/../include/c++/v1/vector:469:9
	movq	1240(%r12), %rdi
Ltmp192:
	##DEBUG_VALUE: __destruct_at_end:__new_last <- RDI
	.loc	34 469 18 is_stmt 0     ## /Applications/Xcode.app/Contents/Developer/Toolchains/XcodeDefault.xctoolchain/usr/bin/../include/c++/v1/vector:469:18
	testq	%rdi, %rdi
	je	LBB3_17
Ltmp193:
## BB#14:
	##DEBUG_VALUE: ~LIGHT:this <- R12
	##DEBUG_VALUE: __destruct_at_end:__new_last <- RDI
	.loc	34 443 26 is_stmt 1     ## /Applications/Xcode.app/Contents/Developer/Toolchains/XcodeDefault.xctoolchain/usr/bin/../include/c++/v1/vector:443:26
	movq	1248(%r12), %rax
	.loc	34 443 23 is_stmt 0     ## /Applications/Xcode.app/Contents/Developer/Toolchains/XcodeDefault.xctoolchain/usr/bin/../include/c++/v1/vector:443:23
	cmpq	%rdi, %rax
	je	LBB3_16
Ltmp194:
## BB#15:                               ## %.lr.ph.i.i.i.i.i.i.i8
	##DEBUG_VALUE: ~LIGHT:this <- R12
	##DEBUG_VALUE: __destruct_at_end:__new_last <- RDI
	.loc	34 368 29 is_stmt 1     ## /Applications/Xcode.app/Contents/Developer/Toolchains/XcodeDefault.xctoolchain/usr/bin/../include/c++/v1/vector:368:29
	leaq	-4(%rax), %rcx
	subq	%rdi, %rcx
	notq	%rcx
	andq	$-4, %rcx
	addq	%rax, %rcx
	.loc	34 444 68               ## /Applications/Xcode.app/Contents/Developer/Toolchains/XcodeDefault.xctoolchain/usr/bin/../include/c++/v1/vector:444:68
Ltmp195:
	movq	%rcx, 1248(%r12)
Ltmp196:
LBB3_16:                                ## %_ZNSt3__113__vector_baseIiNS_9allocatorIiEEE5clearEv.exit.i.i.i.i.i9
	##DEBUG_VALUE: ~LIGHT:this <- R12
	.loc	106 164 3               ## /Applications/Xcode.app/Contents/Developer/Toolchains/XcodeDefault.xctoolchain/usr/bin/../include/c++/v1/new:164:3
	callq	__ZdlPv
Ltmp197:
LBB3_17:                                ## %_ZN21PARAM_FOR_LED_CONTROLD1Ev.exit10
	##DEBUG_VALUE: ~LIGHT:this <- R12
	.loc	34 469 9                ## /Applications/Xcode.app/Contents/Developer/Toolchains/XcodeDefault.xctoolchain/usr/bin/../include/c++/v1/vector:469:9
	movq	1160(%r12), %rdi
	.loc	34 469 18 is_stmt 0     ## /Applications/Xcode.app/Contents/Developer/Toolchains/XcodeDefault.xctoolchain/usr/bin/../include/c++/v1/vector:469:18
	testq	%rdi, %rdi
	je	LBB3_21
Ltmp198:
## BB#18:
	##DEBUG_VALUE: ~LIGHT:this <- R12
	.loc	34 443 26 is_stmt 1     ## /Applications/Xcode.app/Contents/Developer/Toolchains/XcodeDefault.xctoolchain/usr/bin/../include/c++/v1/vector:443:26
	movq	1168(%r12), %rax
	.loc	34 443 23 is_stmt 0     ## /Applications/Xcode.app/Contents/Developer/Toolchains/XcodeDefault.xctoolchain/usr/bin/../include/c++/v1/vector:443:23
	cmpq	%rdi, %rax
	je	LBB3_20
Ltmp199:
## BB#19:                               ## %.lr.ph.i.i.i.i.i.i.i8.1
	##DEBUG_VALUE: ~LIGHT:this <- R12
	.loc	34 368 29 is_stmt 1     ## /Applications/Xcode.app/Contents/Developer/Toolchains/XcodeDefault.xctoolchain/usr/bin/../include/c++/v1/vector:368:29
	leaq	-4(%rax), %rcx
	subq	%rdi, %rcx
	notq	%rcx
	andq	$-4, %rcx
	addq	%rax, %rcx
	.loc	34 444 68               ## /Applications/Xcode.app/Contents/Developer/Toolchains/XcodeDefault.xctoolchain/usr/bin/../include/c++/v1/vector:444:68
Ltmp200:
	movq	%rcx, 1168(%r12)
Ltmp201:
LBB3_20:                                ## %_ZNSt3__113__vector_baseIiNS_9allocatorIiEEE5clearEv.exit.i.i.i.i.i9.1
	##DEBUG_VALUE: ~LIGHT:this <- R12
	.loc	106 164 3               ## /Applications/Xcode.app/Contents/Developer/Toolchains/XcodeDefault.xctoolchain/usr/bin/../include/c++/v1/new:164:3
	callq	__ZdlPv
Ltmp202:
LBB3_21:                                ## %_ZN21PARAM_FOR_LED_CONTROLD1Ev.exit10.1
	##DEBUG_VALUE: ~LIGHT:this <- R12
	.loc	34 469 9                ## /Applications/Xcode.app/Contents/Developer/Toolchains/XcodeDefault.xctoolchain/usr/bin/../include/c++/v1/vector:469:9
	movq	1080(%r12), %rdi
	.loc	34 469 18 is_stmt 0     ## /Applications/Xcode.app/Contents/Developer/Toolchains/XcodeDefault.xctoolchain/usr/bin/../include/c++/v1/vector:469:18
	testq	%rdi, %rdi
	je	LBB3_25
Ltmp203:
## BB#22:
	##DEBUG_VALUE: ~LIGHT:this <- R12
	.loc	34 443 26 is_stmt 1     ## /Applications/Xcode.app/Contents/Developer/Toolchains/XcodeDefault.xctoolchain/usr/bin/../include/c++/v1/vector:443:26
	movq	1088(%r12), %rax
	.loc	34 443 23 is_stmt 0     ## /Applications/Xcode.app/Contents/Developer/Toolchains/XcodeDefault.xctoolchain/usr/bin/../include/c++/v1/vector:443:23
	cmpq	%rdi, %rax
	je	LBB3_24
Ltmp204:
## BB#23:                               ## %.lr.ph.i.i.i.i.i.i.i8.2
	##DEBUG_VALUE: ~LIGHT:this <- R12
	.loc	34 368 29 is_stmt 1     ## /Applications/Xcode.app/Contents/Developer/Toolchains/XcodeDefault.xctoolchain/usr/bin/../include/c++/v1/vector:368:29
	leaq	-4(%rax), %rcx
	subq	%rdi, %rcx
	notq	%rcx
	andq	$-4, %rcx
	addq	%rax, %rcx
	.loc	34 444 68               ## /Applications/Xcode.app/Contents/Developer/Toolchains/XcodeDefault.xctoolchain/usr/bin/../include/c++/v1/vector:444:68
Ltmp205:
	movq	%rcx, 1088(%r12)
Ltmp206:
LBB3_24:                                ## %_ZNSt3__113__vector_baseIiNS_9allocatorIiEEE5clearEv.exit.i.i.i.i.i9.2
	##DEBUG_VALUE: ~LIGHT:this <- R12
	.loc	106 164 3               ## /Applications/Xcode.app/Contents/Developer/Toolchains/XcodeDefault.xctoolchain/usr/bin/../include/c++/v1/new:164:3
	callq	__ZdlPv
Ltmp207:
LBB3_25:                                ## %_ZN21PARAM_FOR_LED_CONTROLD1Ev.exit10.2
	##DEBUG_VALUE: ~LIGHT:this <- R12
	.loc	34 469 9                ## /Applications/Xcode.app/Contents/Developer/Toolchains/XcodeDefault.xctoolchain/usr/bin/../include/c++/v1/vector:469:9
	movq	1000(%r12), %rdi
	.loc	34 469 18 is_stmt 0     ## /Applications/Xcode.app/Contents/Developer/Toolchains/XcodeDefault.xctoolchain/usr/bin/../include/c++/v1/vector:469:18
	testq	%rdi, %rdi
	je	LBB3_29
Ltmp208:
## BB#26:
	##DEBUG_VALUE: ~LIGHT:this <- R12
	.loc	34 443 26 is_stmt 1     ## /Applications/Xcode.app/Contents/Developer/Toolchains/XcodeDefault.xctoolchain/usr/bin/../include/c++/v1/vector:443:26
	movq	1008(%r12), %rax
	.loc	34 443 23 is_stmt 0     ## /Applications/Xcode.app/Contents/Developer/Toolchains/XcodeDefault.xctoolchain/usr/bin/../include/c++/v1/vector:443:23
	cmpq	%rdi, %rax
	je	LBB3_28
Ltmp209:
## BB#27:                               ## %.lr.ph.i.i.i.i.i.i.i8.3
	##DEBUG_VALUE: ~LIGHT:this <- R12
	.loc	34 368 29 is_stmt 1     ## /Applications/Xcode.app/Contents/Developer/Toolchains/XcodeDefault.xctoolchain/usr/bin/../include/c++/v1/vector:368:29
	leaq	-4(%rax), %rcx
	subq	%rdi, %rcx
	notq	%rcx
	andq	$-4, %rcx
	addq	%rax, %rcx
	.loc	34 444 68               ## /Applications/Xcode.app/Contents/Developer/Toolchains/XcodeDefault.xctoolchain/usr/bin/../include/c++/v1/vector:444:68
Ltmp210:
	movq	%rcx, 1008(%r12)
Ltmp211:
LBB3_28:                                ## %_ZNSt3__113__vector_baseIiNS_9allocatorIiEEE5clearEv.exit.i.i.i.i.i9.3
	##DEBUG_VALUE: ~LIGHT:this <- R12
	.loc	106 164 3               ## /Applications/Xcode.app/Contents/Developer/Toolchains/XcodeDefault.xctoolchain/usr/bin/../include/c++/v1/new:164:3
	callq	__ZdlPv
Ltmp212:
LBB3_29:                                ## %_ZN21PARAM_FOR_LED_CONTROLD1Ev.exit10.3
	##DEBUG_VALUE: ~LIGHT:this <- R12
	.loc	34 469 9                ## /Applications/Xcode.app/Contents/Developer/Toolchains/XcodeDefault.xctoolchain/usr/bin/../include/c++/v1/vector:469:9
	movq	920(%r12), %rdi
	.loc	34 469 18 is_stmt 0     ## /Applications/Xcode.app/Contents/Developer/Toolchains/XcodeDefault.xctoolchain/usr/bin/../include/c++/v1/vector:469:18
	testq	%rdi, %rdi
	je	LBB3_33
Ltmp213:
## BB#30:
	##DEBUG_VALUE: ~LIGHT:this <- R12
	.loc	34 443 26 is_stmt 1     ## /Applications/Xcode.app/Contents/Developer/Toolchains/XcodeDefault.xctoolchain/usr/bin/../include/c++/v1/vector:443:26
	movq	928(%r12), %rax
	.loc	34 443 23 is_stmt 0     ## /Applications/Xcode.app/Contents/Developer/Toolchains/XcodeDefault.xctoolchain/usr/bin/../include/c++/v1/vector:443:23
	cmpq	%rdi, %rax
	je	LBB3_32
Ltmp214:
## BB#31:                               ## %.lr.ph.i.i.i.i.i.i.i8.4
	##DEBUG_VALUE: ~LIGHT:this <- R12
	.loc	34 368 29 is_stmt 1     ## /Applications/Xcode.app/Contents/Developer/Toolchains/XcodeDefault.xctoolchain/usr/bin/../include/c++/v1/vector:368:29
	leaq	-4(%rax), %rcx
	subq	%rdi, %rcx
	notq	%rcx
	andq	$-4, %rcx
	addq	%rax, %rcx
	.loc	34 444 68               ## /Applications/Xcode.app/Contents/Developer/Toolchains/XcodeDefault.xctoolchain/usr/bin/../include/c++/v1/vector:444:68
Ltmp215:
	movq	%rcx, 928(%r12)
Ltmp216:
LBB3_32:                                ## %_ZNSt3__113__vector_baseIiNS_9allocatorIiEEE5clearEv.exit.i.i.i.i.i9.4
	##DEBUG_VALUE: ~LIGHT:this <- R12
	.loc	106 164 3               ## /Applications/Xcode.app/Contents/Developer/Toolchains/XcodeDefault.xctoolchain/usr/bin/../include/c++/v1/new:164:3
	callq	__ZdlPv
Ltmp217:
LBB3_33:                                ## %_ZN21PARAM_FOR_LED_CONTROLD1Ev.exit10.4
	##DEBUG_VALUE: ~LIGHT:this <- R12
	.loc	47 121 2                ## ../../../addons/ofxNetwork/src/ofxUDPManager.h:121:2
	movq	__ZTV13ofxUDPManager@GOTPCREL(%rip), %rbx
	addq	$16, %rbx
	movq	%rbx, 480(%r12)
	.loc	47 125 35               ## ../../../addons/ofxNetwork/src/ofxUDPManager.h:125:35
Ltmp218:
	movl	488(%r12), %eax
	.loc	47 125 45 is_stmt 0     ## ../../../addons/ofxNetwork/src/ofxUDPManager.h:125:45
	incl	%eax
	cmpl	$1, %eax
	jbe	LBB3_35
Ltmp219:
## BB#34:
	##DEBUG_VALUE: ~LIGHT:this <- R12
	.loc	16 136 1 is_stmt 1      ## /Users/nobuhiro/Documents/source/openframeworks/of_v0.9.0_osx_release/apps/myApps/Gusha_Entrance/src/Light.cpp:136:1
	leaq	480(%r12), %rdi
Ltmp220:
	##DEBUG_VALUE: ~ofxUDPManager:this <- RDI
	##DEBUG_VALUE: ~ofxUDPManager:this <- RDI
	##DEBUG_VALUE: HasSocket:this <- RDI
	.loc	47 122 20               ## ../../../addons/ofxNetwork/src/ofxUDPManager.h:122:20
Ltmp159:
	callq	__ZN13ofxUDPManager5CloseEv
Ltmp160:
Ltmp221:
LBB3_35:                                ## %_ZN13ofxUDPManagerD1Ev.exit
	##DEBUG_VALUE: ~LIGHT:this <- R12
	.loc	47 121 2                ## ../../../addons/ofxNetwork/src/ofxUDPManager.h:121:2
	movq	%rbx, 408(%r12)
	.loc	47 125 35               ## ../../../addons/ofxNetwork/src/ofxUDPManager.h:125:35
Ltmp222:
	movl	416(%r12), %eax
	.loc	47 125 45 is_stmt 0     ## ../../../addons/ofxNetwork/src/ofxUDPManager.h:125:45
	incl	%eax
Ltmp223:
	.loc	47 122 7 is_stmt 1      ## ../../../addons/ofxNetwork/src/ofxUDPManager.h:122:7
	cmpl	$2, %eax
	jb	LBB3_37
Ltmp224:
## BB#36:
	##DEBUG_VALUE: ~LIGHT:this <- R12
	.loc	16 136 1                ## /Users/nobuhiro/Documents/source/openframeworks/of_v0.9.0_osx_release/apps/myApps/Gusha_Entrance/src/Light.cpp:136:1
	leaq	408(%r12), %rdi
Ltmp225:
	##DEBUG_VALUE: ~ofxUDPManager:this <- RDI
	##DEBUG_VALUE: ~ofxUDPManager:this <- RDI
	##DEBUG_VALUE: HasSocket:this <- RDI
	.loc	47 122 20               ## ../../../addons/ofxNetwork/src/ofxUDPManager.h:122:20
Ltmp162:
	callq	__ZN13ofxUDPManager5CloseEv
Ltmp163:
Ltmp226:
LBB3_37:                                ## %_ZN13ofxUDPManagerD1Ev.exit13
	##DEBUG_VALUE: ~LIGHT:this <- R12
	.loc	42 45 5                 ## /Users/nobuhiro/Documents/source/openframeworks/of_v0.9.0_osx_release/addons/ofxArtnet/src/ofxArtnet.h:45:5
	movq	__ZTV9ofxArtnet@GOTPCREL(%rip), %rax
	addq	$16, %rax
	movq	%rax, (%r12)
	.loc	42 47 5                 ## /Users/nobuhiro/Documents/source/openframeworks/of_v0.9.0_osx_release/addons/ofxArtnet/src/ofxArtnet.h:47:5
Ltmp227:
	leaq	368(%r12), %rdi
	callq	__ZNSt3__112basic_stringIcNS_11char_traitsIcEENS_9allocatorIcEEED1Ev
	leaq	344(%r12), %rdi
	callq	__ZNSt3__112basic_stringIcNS_11char_traitsIcEENS_9allocatorIcEEED1Ev
	movq	%r12, %rdi
	popq	%rbx
	popq	%r12
Ltmp228:
	popq	%r14
	popq	%r15
	popq	%rbp
	jmp	__ZN8ofThreadD2Ev       ## TAILCALL
Ltmp229:
LBB3_40:
Ltmp152:
Ltmp230:
	##DEBUG_VALUE: ~LIGHT:this <- R12
	movq	%rax, %r14
	.loc	34 469 9                ## /Applications/Xcode.app/Contents/Developer/Toolchains/XcodeDefault.xctoolchain/usr/bin/../include/c++/v1/vector:469:9
Ltmp231:
	movq	1496(%r12), %rdi
Ltmp232:
	##DEBUG_VALUE: __destruct_at_end:__new_last <- RDI
	.loc	34 469 18 is_stmt 0     ## /Applications/Xcode.app/Contents/Developer/Toolchains/XcodeDefault.xctoolchain/usr/bin/../include/c++/v1/vector:469:18
	testq	%rdi, %rdi
	je	LBB3_44
Ltmp233:
## BB#41:
	##DEBUG_VALUE: ~LIGHT:this <- R12
	##DEBUG_VALUE: __destruct_at_end:__new_last <- RDI
	.loc	34 443 26 is_stmt 1     ## /Applications/Xcode.app/Contents/Developer/Toolchains/XcodeDefault.xctoolchain/usr/bin/../include/c++/v1/vector:443:26
	movq	1504(%r12), %rax
	.loc	34 443 23 is_stmt 0     ## /Applications/Xcode.app/Contents/Developer/Toolchains/XcodeDefault.xctoolchain/usr/bin/../include/c++/v1/vector:443:23
	cmpq	%rdi, %rax
	je	LBB3_43
Ltmp234:
## BB#42:                               ## %.lr.ph.i.i.i.i.i16
	##DEBUG_VALUE: ~LIGHT:this <- R12
	##DEBUG_VALUE: __destruct_at_end:__new_last <- RDI
	.loc	34 368 29 is_stmt 1     ## /Applications/Xcode.app/Contents/Developer/Toolchains/XcodeDefault.xctoolchain/usr/bin/../include/c++/v1/vector:368:29
	leaq	-4(%rax), %rcx
	subq	%rdi, %rcx
	notq	%rcx
	andq	$-4, %rcx
	addq	%rax, %rcx
	.loc	34 444 68               ## /Applications/Xcode.app/Contents/Developer/Toolchains/XcodeDefault.xctoolchain/usr/bin/../include/c++/v1/vector:444:68
Ltmp235:
	movq	%rcx, 1504(%r12)
Ltmp236:
LBB3_43:                                ## %_ZNSt3__113__vector_baseIiNS_9allocatorIiEEE5clearEv.exit.i.i.i17
	##DEBUG_VALUE: ~LIGHT:this <- R12
	.loc	106 164 3               ## /Applications/Xcode.app/Contents/Developer/Toolchains/XcodeDefault.xctoolchain/usr/bin/../include/c++/v1/new:164:3
	callq	__ZdlPv
Ltmp237:
LBB3_44:                                ## %_ZNSt3__16vectorIiNS_9allocatorIiEEED1Ev.exit18
	##DEBUG_VALUE: ~LIGHT:this <- R12
	.loc	34 469 9                ## /Applications/Xcode.app/Contents/Developer/Toolchains/XcodeDefault.xctoolchain/usr/bin/../include/c++/v1/vector:469:9
	movq	1400(%r12), %rdi
Ltmp238:
	##DEBUG_VALUE: __destruct_at_end:__new_last <- RDI
	.loc	34 469 18 is_stmt 0     ## /Applications/Xcode.app/Contents/Developer/Toolchains/XcodeDefault.xctoolchain/usr/bin/../include/c++/v1/vector:469:18
	testq	%rdi, %rdi
	je	LBB3_48
Ltmp239:
## BB#45:
	##DEBUG_VALUE: ~LIGHT:this <- R12
	##DEBUG_VALUE: __destruct_at_end:__new_last <- RDI
	.loc	34 443 26 is_stmt 1     ## /Applications/Xcode.app/Contents/Developer/Toolchains/XcodeDefault.xctoolchain/usr/bin/../include/c++/v1/vector:443:26
	movq	1408(%r12), %rax
	.loc	34 443 23 is_stmt 0     ## /Applications/Xcode.app/Contents/Developer/Toolchains/XcodeDefault.xctoolchain/usr/bin/../include/c++/v1/vector:443:23
	cmpq	%rdi, %rax
	je	LBB3_47
Ltmp240:
## BB#46:                               ## %.lr.ph.i.i.i.i.i.i.i21
	##DEBUG_VALUE: ~LIGHT:this <- R12
	##DEBUG_VALUE: __destruct_at_end:__new_last <- RDI
	.loc	34 368 29 is_stmt 1     ## /Applications/Xcode.app/Contents/Developer/Toolchains/XcodeDefault.xctoolchain/usr/bin/../include/c++/v1/vector:368:29
	leaq	-4(%rax), %rcx
	subq	%rdi, %rcx
	notq	%rcx
	andq	$-4, %rcx
	addq	%rax, %rcx
	.loc	34 444 68               ## /Applications/Xcode.app/Contents/Developer/Toolchains/XcodeDefault.xctoolchain/usr/bin/../include/c++/v1/vector:444:68
Ltmp241:
	movq	%rcx, 1408(%r12)
Ltmp242:
LBB3_47:                                ## %_ZNSt3__113__vector_baseIiNS_9allocatorIiEEE5clearEv.exit.i.i.i.i.i22
	##DEBUG_VALUE: ~LIGHT:this <- R12
	.loc	106 164 3               ## /Applications/Xcode.app/Contents/Developer/Toolchains/XcodeDefault.xctoolchain/usr/bin/../include/c++/v1/new:164:3
	callq	__ZdlPv
Ltmp243:
LBB3_48:                                ## %_ZN21PARAM_FOR_LED_CONTROLD1Ev.exit23
	##DEBUG_VALUE: ~LIGHT:this <- R12
	.loc	34 469 9                ## /Applications/Xcode.app/Contents/Developer/Toolchains/XcodeDefault.xctoolchain/usr/bin/../include/c++/v1/vector:469:9
	movq	1320(%r12), %rdi
Ltmp244:
	##DEBUG_VALUE: __destruct_at_end:__new_last <- RDI
	.loc	34 469 18 is_stmt 0     ## /Applications/Xcode.app/Contents/Developer/Toolchains/XcodeDefault.xctoolchain/usr/bin/../include/c++/v1/vector:469:18
	testq	%rdi, %rdi
	je	LBB3_52
Ltmp245:
## BB#49:
	##DEBUG_VALUE: ~LIGHT:this <- R12
	##DEBUG_VALUE: __destruct_at_end:__new_last <- RDI
	.loc	34 443 26 is_stmt 1     ## /Applications/Xcode.app/Contents/Developer/Toolchains/XcodeDefault.xctoolchain/usr/bin/../include/c++/v1/vector:443:26
	movq	1328(%r12), %rax
	.loc	34 443 23 is_stmt 0     ## /Applications/Xcode.app/Contents/Developer/Toolchains/XcodeDefault.xctoolchain/usr/bin/../include/c++/v1/vector:443:23
	cmpq	%rdi, %rax
	je	LBB3_51
Ltmp246:
## BB#50:                               ## %.lr.ph.i.i.i.i.i.i.i26
	##DEBUG_VALUE: ~LIGHT:this <- R12
	##DEBUG_VALUE: __destruct_at_end:__new_last <- RDI
	.loc	34 368 29 is_stmt 1     ## /Applications/Xcode.app/Contents/Developer/Toolchains/XcodeDefault.xctoolchain/usr/bin/../include/c++/v1/vector:368:29
	leaq	-4(%rax), %rcx
	subq	%rdi, %rcx
	notq	%rcx
	andq	$-4, %rcx
	addq	%rax, %rcx
	.loc	34 444 68               ## /Applications/Xcode.app/Contents/Developer/Toolchains/XcodeDefault.xctoolchain/usr/bin/../include/c++/v1/vector:444:68
Ltmp247:
	movq	%rcx, 1328(%r12)
Ltmp248:
LBB3_51:                                ## %_ZNSt3__113__vector_baseIiNS_9allocatorIiEEE5clearEv.exit.i.i.i.i.i27
	##DEBUG_VALUE: ~LIGHT:this <- R12
	.loc	106 164 3               ## /Applications/Xcode.app/Contents/Developer/Toolchains/XcodeDefault.xctoolchain/usr/bin/../include/c++/v1/new:164:3
	callq	__ZdlPv
Ltmp249:
LBB3_52:                                ## %_ZN21PARAM_FOR_LED_CONTROLD1Ev.exit28
	##DEBUG_VALUE: ~LIGHT:this <- R12
	.loc	34 469 9                ## /Applications/Xcode.app/Contents/Developer/Toolchains/XcodeDefault.xctoolchain/usr/bin/../include/c++/v1/vector:469:9
	movq	1240(%r12), %rdi
Ltmp250:
	##DEBUG_VALUE: __destruct_at_end:__new_last <- RDI
	.loc	34 469 18 is_stmt 0     ## /Applications/Xcode.app/Contents/Developer/Toolchains/XcodeDefault.xctoolchain/usr/bin/../include/c++/v1/vector:469:18
	testq	%rdi, %rdi
	je	LBB3_56
Ltmp251:
## BB#53:
	##DEBUG_VALUE: ~LIGHT:this <- R12
	##DEBUG_VALUE: __destruct_at_end:__new_last <- RDI
	.loc	34 443 26 is_stmt 1     ## /Applications/Xcode.app/Contents/Developer/Toolchains/XcodeDefault.xctoolchain/usr/bin/../include/c++/v1/vector:443:26
	movq	1248(%r12), %rax
	.loc	34 443 23 is_stmt 0     ## /Applications/Xcode.app/Contents/Developer/Toolchains/XcodeDefault.xctoolchain/usr/bin/../include/c++/v1/vector:443:23
	cmpq	%rdi, %rax
	je	LBB3_55
Ltmp252:
## BB#54:                               ## %.lr.ph.i.i.i.i.i.i.i31
	##DEBUG_VALUE: ~LIGHT:this <- R12
	##DEBUG_VALUE: __destruct_at_end:__new_last <- RDI
	.loc	34 368 29 is_stmt 1     ## /Applications/Xcode.app/Contents/Developer/Toolchains/XcodeDefault.xctoolchain/usr/bin/../include/c++/v1/vector:368:29
	leaq	-4(%rax), %rcx
	subq	%rdi, %rcx
	notq	%rcx
	andq	$-4, %rcx
	addq	%rax, %rcx
	.loc	34 444 68               ## /Applications/Xcode.app/Contents/Developer/Toolchains/XcodeDefault.xctoolchain/usr/bin/../include/c++/v1/vector:444:68
Ltmp253:
	movq	%rcx, 1248(%r12)
Ltmp254:
LBB3_55:                                ## %_ZNSt3__113__vector_baseIiNS_9allocatorIiEEE5clearEv.exit.i.i.i.i.i32
	##DEBUG_VALUE: ~LIGHT:this <- R12
	.loc	106 164 3               ## /Applications/Xcode.app/Contents/Developer/Toolchains/XcodeDefault.xctoolchain/usr/bin/../include/c++/v1/new:164:3
	callq	__ZdlPv
Ltmp255:
LBB3_56:                                ## %_ZN21PARAM_FOR_LED_CONTROLD1Ev.exit33
	##DEBUG_VALUE: ~LIGHT:this <- R12
	.loc	34 469 9                ## /Applications/Xcode.app/Contents/Developer/Toolchains/XcodeDefault.xctoolchain/usr/bin/../include/c++/v1/vector:469:9
	movq	1160(%r12), %rdi
	.loc	34 469 18 is_stmt 0     ## /Applications/Xcode.app/Contents/Developer/Toolchains/XcodeDefault.xctoolchain/usr/bin/../include/c++/v1/vector:469:18
	testq	%rdi, %rdi
	je	LBB3_60
Ltmp256:
## BB#57:
	##DEBUG_VALUE: ~LIGHT:this <- R12
	.loc	34 443 26 is_stmt 1     ## /Applications/Xcode.app/Contents/Developer/Toolchains/XcodeDefault.xctoolchain/usr/bin/../include/c++/v1/vector:443:26
	movq	1168(%r12), %rax
	.loc	34 443 23 is_stmt 0     ## /Applications/Xcode.app/Contents/Developer/Toolchains/XcodeDefault.xctoolchain/usr/bin/../include/c++/v1/vector:443:23
	cmpq	%rdi, %rax
	je	LBB3_59
Ltmp257:
## BB#58:                               ## %.lr.ph.i.i.i.i.i.i.i31.1
	##DEBUG_VALUE: ~LIGHT:this <- R12
	.loc	34 368 29 is_stmt 1     ## /Applications/Xcode.app/Contents/Developer/Toolchains/XcodeDefault.xctoolchain/usr/bin/../include/c++/v1/vector:368:29
	leaq	-4(%rax), %rcx
	subq	%rdi, %rcx
	notq	%rcx
	andq	$-4, %rcx
	addq	%rax, %rcx
	.loc	34 444 68               ## /Applications/Xcode.app/Contents/Developer/Toolchains/XcodeDefault.xctoolchain/usr/bin/../include/c++/v1/vector:444:68
Ltmp258:
	movq	%rcx, 1168(%r12)
Ltmp259:
LBB3_59:                                ## %_ZNSt3__113__vector_baseIiNS_9allocatorIiEEE5clearEv.exit.i.i.i.i.i32.1
	##DEBUG_VALUE: ~LIGHT:this <- R12
	.loc	106 164 3               ## /Applications/Xcode.app/Contents/Developer/Toolchains/XcodeDefault.xctoolchain/usr/bin/../include/c++/v1/new:164:3
	callq	__ZdlPv
Ltmp260:
LBB3_60:                                ## %_ZN21PARAM_FOR_LED_CONTROLD1Ev.exit33.1
	##DEBUG_VALUE: ~LIGHT:this <- R12
	.loc	34 469 9                ## /Applications/Xcode.app/Contents/Developer/Toolchains/XcodeDefault.xctoolchain/usr/bin/../include/c++/v1/vector:469:9
	movq	1080(%r12), %rdi
	.loc	34 469 18 is_stmt 0     ## /Applications/Xcode.app/Contents/Developer/Toolchains/XcodeDefault.xctoolchain/usr/bin/../include/c++/v1/vector:469:18
	testq	%rdi, %rdi
	je	LBB3_64
Ltmp261:
## BB#61:
	##DEBUG_VALUE: ~LIGHT:this <- R12
	.loc	34 443 26 is_stmt 1     ## /Applications/Xcode.app/Contents/Developer/Toolchains/XcodeDefault.xctoolchain/usr/bin/../include/c++/v1/vector:443:26
	movq	1088(%r12), %rax
	.loc	34 443 23 is_stmt 0     ## /Applications/Xcode.app/Contents/Developer/Toolchains/XcodeDefault.xctoolchain/usr/bin/../include/c++/v1/vector:443:23
	cmpq	%rdi, %rax
	je	LBB3_63
Ltmp262:
## BB#62:                               ## %.lr.ph.i.i.i.i.i.i.i31.2
	##DEBUG_VALUE: ~LIGHT:this <- R12
	.loc	34 368 29 is_stmt 1     ## /Applications/Xcode.app/Contents/Developer/Toolchains/XcodeDefault.xctoolchain/usr/bin/../include/c++/v1/vector:368:29
	leaq	-4(%rax), %rcx
	subq	%rdi, %rcx
	notq	%rcx
	andq	$-4, %rcx
	addq	%rax, %rcx
	.loc	34 444 68               ## /Applications/Xcode.app/Contents/Developer/Toolchains/XcodeDefault.xctoolchain/usr/bin/../include/c++/v1/vector:444:68
Ltmp263:
	movq	%rcx, 1088(%r12)
Ltmp264:
LBB3_63:                                ## %_ZNSt3__113__vector_baseIiNS_9allocatorIiEEE5clearEv.exit.i.i.i.i.i32.2
	##DEBUG_VALUE: ~LIGHT:this <- R12
	.loc	106 164 3               ## /Applications/Xcode.app/Contents/Developer/Toolchains/XcodeDefault.xctoolchain/usr/bin/../include/c++/v1/new:164:3
	callq	__ZdlPv
Ltmp265:
LBB3_64:                                ## %_ZN21PARAM_FOR_LED_CONTROLD1Ev.exit33.2
	##DEBUG_VALUE: ~LIGHT:this <- R12
	.loc	34 469 9                ## /Applications/Xcode.app/Contents/Developer/Toolchains/XcodeDefault.xctoolchain/usr/bin/../include/c++/v1/vector:469:9
	movq	1000(%r12), %rdi
	.loc	34 469 18 is_stmt 0     ## /Applications/Xcode.app/Contents/Developer/Toolchains/XcodeDefault.xctoolchain/usr/bin/../include/c++/v1/vector:469:18
	testq	%rdi, %rdi
	je	LBB3_68
Ltmp266:
## BB#65:
	##DEBUG_VALUE: ~LIGHT:this <- R12
	.loc	34 443 26 is_stmt 1     ## /Applications/Xcode.app/Contents/Developer/Toolchains/XcodeDefault.xctoolchain/usr/bin/../include/c++/v1/vector:443:26
	movq	1008(%r12), %rax
	.loc	34 443 23 is_stmt 0     ## /Applications/Xcode.app/Contents/Developer/Toolchains/XcodeDefault.xctoolchain/usr/bin/../include/c++/v1/vector:443:23
	cmpq	%rdi, %rax
	je	LBB3_67
Ltmp267:
## BB#66:                               ## %.lr.ph.i.i.i.i.i.i.i31.3
	##DEBUG_VALUE: ~LIGHT:this <- R12
	.loc	34 368 29 is_stmt 1     ## /Applications/Xcode.app/Contents/Developer/Toolchains/XcodeDefault.xctoolchain/usr/bin/../include/c++/v1/vector:368:29
	leaq	-4(%rax), %rcx
	subq	%rdi, %rcx
	notq	%rcx
	andq	$-4, %rcx
	addq	%rax, %rcx
	.loc	34 444 68               ## /Applications/Xcode.app/Contents/Developer/Toolchains/XcodeDefault.xctoolchain/usr/bin/../include/c++/v1/vector:444:68
Ltmp268:
	movq	%rcx, 1008(%r12)
Ltmp269:
LBB3_67:                                ## %_ZNSt3__113__vector_baseIiNS_9allocatorIiEEE5clearEv.exit.i.i.i.i.i32.3
	##DEBUG_VALUE: ~LIGHT:this <- R12
	.loc	106 164 3               ## /Applications/Xcode.app/Contents/Developer/Toolchains/XcodeDefault.xctoolchain/usr/bin/../include/c++/v1/new:164:3
	callq	__ZdlPv
Ltmp270:
LBB3_68:                                ## %_ZN21PARAM_FOR_LED_CONTROLD1Ev.exit33.3
	##DEBUG_VALUE: ~LIGHT:this <- R12
	.loc	34 469 9                ## /Applications/Xcode.app/Contents/Developer/Toolchains/XcodeDefault.xctoolchain/usr/bin/../include/c++/v1/vector:469:9
	movq	920(%r12), %rdi
	.loc	34 469 18 is_stmt 0     ## /Applications/Xcode.app/Contents/Developer/Toolchains/XcodeDefault.xctoolchain/usr/bin/../include/c++/v1/vector:469:18
	testq	%rdi, %rdi
	je	LBB3_72
Ltmp271:
## BB#69:
	##DEBUG_VALUE: ~LIGHT:this <- R12
	.loc	34 443 26 is_stmt 1     ## /Applications/Xcode.app/Contents/Developer/Toolchains/XcodeDefault.xctoolchain/usr/bin/../include/c++/v1/vector:443:26
	movq	928(%r12), %rax
	.loc	34 443 23 is_stmt 0     ## /Applications/Xcode.app/Contents/Developer/Toolchains/XcodeDefault.xctoolchain/usr/bin/../include/c++/v1/vector:443:23
	cmpq	%rdi, %rax
	je	LBB3_71
Ltmp272:
## BB#70:                               ## %.lr.ph.i.i.i.i.i.i.i31.4
	##DEBUG_VALUE: ~LIGHT:this <- R12
	.loc	34 368 29 is_stmt 1     ## /Applications/Xcode.app/Contents/Developer/Toolchains/XcodeDefault.xctoolchain/usr/bin/../include/c++/v1/vector:368:29
	leaq	-4(%rax), %rcx
	subq	%rdi, %rcx
	notq	%rcx
	andq	$-4, %rcx
	addq	%rax, %rcx
	.loc	34 444 68               ## /Applications/Xcode.app/Contents/Developer/Toolchains/XcodeDefault.xctoolchain/usr/bin/../include/c++/v1/vector:444:68
Ltmp273:
	movq	%rcx, 928(%r12)
Ltmp274:
LBB3_71:                                ## %_ZNSt3__113__vector_baseIiNS_9allocatorIiEEE5clearEv.exit.i.i.i.i.i32.4
	##DEBUG_VALUE: ~LIGHT:this <- R12
	.loc	106 164 3               ## /Applications/Xcode.app/Contents/Developer/Toolchains/XcodeDefault.xctoolchain/usr/bin/../include/c++/v1/new:164:3
	callq	__ZdlPv
Ltmp275:
LBB3_72:                                ## %_ZN21PARAM_FOR_LED_CONTROLD1Ev.exit33.4
	##DEBUG_VALUE: ~LIGHT:this <- R12
	.loc	47 121 2                ## ../../../addons/ofxNetwork/src/ofxUDPManager.h:121:2
	movq	__ZTV13ofxUDPManager@GOTPCREL(%rip), %r15
	addq	$16, %r15
	movq	%r15, 480(%r12)
	.loc	47 125 35               ## ../../../addons/ofxNetwork/src/ofxUDPManager.h:125:35
Ltmp276:
	movl	488(%r12), %eax
	.loc	47 125 45 is_stmt 0     ## ../../../addons/ofxNetwork/src/ofxUDPManager.h:125:45
	incl	%eax
	cmpl	$1, %eax
	jbe	LBB3_74
Ltmp277:
## BB#73:
	##DEBUG_VALUE: ~LIGHT:this <- R12
	.loc	16 136 1 is_stmt 1      ## /Users/nobuhiro/Documents/source/openframeworks/of_v0.9.0_osx_release/apps/myApps/Gusha_Entrance/src/Light.cpp:136:1
	leaq	480(%r12), %rdi
Ltmp278:
	##DEBUG_VALUE: ~ofxUDPManager:this <- RDI
	##DEBUG_VALUE: ~ofxUDPManager:this <- RDI
	##DEBUG_VALUE: HasSocket:this <- RDI
	.loc	47 122 20               ## ../../../addons/ofxNetwork/src/ofxUDPManager.h:122:20
Ltmp153:
	callq	__ZN13ofxUDPManager5CloseEv
Ltmp154:
Ltmp279:
LBB3_74:                                ## %_ZN13ofxUDPManagerD1Ev.exit36
	##DEBUG_VALUE: ~LIGHT:this <- R12
	.loc	47 121 2                ## ../../../addons/ofxNetwork/src/ofxUDPManager.h:121:2
	movq	%r15, 408(%r12)
	.loc	47 125 35               ## ../../../addons/ofxNetwork/src/ofxUDPManager.h:125:35
Ltmp280:
	movl	416(%r12), %eax
	.loc	47 125 45 is_stmt 0     ## ../../../addons/ofxNetwork/src/ofxUDPManager.h:125:45
	incl	%eax
Ltmp281:
	.loc	47 122 7 is_stmt 1      ## ../../../addons/ofxNetwork/src/ofxUDPManager.h:122:7
	cmpl	$2, %eax
	jb	LBB3_76
Ltmp282:
## BB#75:
	##DEBUG_VALUE: ~LIGHT:this <- R12
	.loc	16 136 1                ## /Users/nobuhiro/Documents/source/openframeworks/of_v0.9.0_osx_release/apps/myApps/Gusha_Entrance/src/Light.cpp:136:1
	leaq	408(%r12), %rdi
Ltmp283:
	##DEBUG_VALUE: ~ofxUDPManager:this <- RDI
	##DEBUG_VALUE: ~ofxUDPManager:this <- RDI
	##DEBUG_VALUE: HasSocket:this <- RDI
	.loc	47 122 20               ## ../../../addons/ofxNetwork/src/ofxUDPManager.h:122:20
Ltmp156:
	callq	__ZN13ofxUDPManager5CloseEv
Ltmp157:
Ltmp284:
LBB3_76:                                ## %_ZN13ofxUDPManagerD1Ev.exit39
	##DEBUG_VALUE: ~LIGHT:this <- R12
	.loc	42 45 5                 ## /Users/nobuhiro/Documents/source/openframeworks/of_v0.9.0_osx_release/addons/ofxArtnet/src/ofxArtnet.h:45:5
	movq	__ZTV9ofxArtnet@GOTPCREL(%rip), %rax
	addq	$16, %rax
	movq	%rax, (%r12)
	.loc	42 47 5                 ## /Users/nobuhiro/Documents/source/openframeworks/of_v0.9.0_osx_release/addons/ofxArtnet/src/ofxArtnet.h:47:5
Ltmp285:
	leaq	368(%r12), %rdi
	callq	__ZNSt3__112basic_stringIcNS_11char_traitsIcEENS_9allocatorIcEEED1Ev
	leaq	344(%r12), %rdi
	callq	__ZNSt3__112basic_stringIcNS_11char_traitsIcEENS_9allocatorIcEEED1Ev
	movq	%r12, %rdi
	callq	__ZN8ofThreadD2Ev
Ltmp286:
	.loc	16 136 1                ## /Users/nobuhiro/Documents/source/openframeworks/of_v0.9.0_osx_release/apps/myApps/Gusha_Entrance/src/Light.cpp:136:1
	movq	%r14, %rdi
	callq	___clang_call_terminate
Ltmp287:
LBB3_38:
Ltmp161:
	.loc	47 122 7                ## ../../../addons/ofxNetwork/src/ofxUDPManager.h:122:7
Ltmp288:
	movq	%rax, %rdi
	callq	___clang_call_terminate
Ltmp289:
LBB3_39:
Ltmp164:
	.loc	47 122 7 is_stmt 0      ## ../../../addons/ofxNetwork/src/ofxUDPManager.h:122:7
Ltmp290:
	movq	%rax, %rdi
	callq	___clang_call_terminate
Ltmp291:
LBB3_77:
Ltmp155:
	.loc	47 122 7                ## ../../../addons/ofxNetwork/src/ofxUDPManager.h:122:7
Ltmp292:
	movq	%rax, %rdi
	callq	___clang_call_terminate
Ltmp293:
LBB3_78:
Ltmp158:
	.loc	47 122 7                ## ../../../addons/ofxNetwork/src/ofxUDPManager.h:122:7
Ltmp294:
	movq	%rax, %rdi
	callq	___clang_call_terminate
Ltmp295:
Lfunc_end3:
	.cfi_endproc
	.section	__TEXT,__gcc_except_tab
	.align	2
GCC_except_table3:
Lexception3:
	.byte	255                     ## @LPStart Encoding = omit
	.byte	155                     ## @TType Encoding = indirect pcrel sdata4
	.byte	73                      ## @TType base offset
	.byte	3                       ## Call site Encoding = udata4
	.byte	65                      ## Call site table length
Lset25 = Ltmp150-Lfunc_begin3           ## >> Call Site 1 <<
	.long	Lset25
Lset26 = Ltmp151-Ltmp150                ##   Call between Ltmp150 and Ltmp151
	.long	Lset26
Lset27 = Ltmp152-Lfunc_begin3           ##     jumps to Ltmp152
	.long	Lset27
	.byte	1                       ##   On action: 1
Lset28 = Ltmp159-Lfunc_begin3           ## >> Call Site 2 <<
	.long	Lset28
Lset29 = Ltmp160-Ltmp159                ##   Call between Ltmp159 and Ltmp160
	.long	Lset29
Lset30 = Ltmp161-Lfunc_begin3           ##     jumps to Ltmp161
	.long	Lset30
	.byte	1                       ##   On action: 1
Lset31 = Ltmp162-Lfunc_begin3           ## >> Call Site 3 <<
	.long	Lset31
Lset32 = Ltmp163-Ltmp162                ##   Call between Ltmp162 and Ltmp163
	.long	Lset32
Lset33 = Ltmp164-Lfunc_begin3           ##     jumps to Ltmp164
	.long	Lset33
	.byte	1                       ##   On action: 1
Lset34 = Ltmp153-Lfunc_begin3           ## >> Call Site 4 <<
	.long	Lset34
Lset35 = Ltmp154-Ltmp153                ##   Call between Ltmp153 and Ltmp154
	.long	Lset35
Lset36 = Ltmp155-Lfunc_begin3           ##     jumps to Ltmp155
	.long	Lset36
	.byte	1                       ##   On action: 1
Lset37 = Ltmp156-Lfunc_begin3           ## >> Call Site 5 <<
	.long	Lset37
Lset38 = Ltmp157-Ltmp156                ##   Call between Ltmp156 and Ltmp157
	.long	Lset38
Lset39 = Ltmp158-Lfunc_begin3           ##     jumps to Ltmp158
	.long	Lset39
	.byte	1                       ##   On action: 1
	.byte	1                       ## >> Action Record 1 <<
                                        ##   Catch TypeInfo 1
	.byte	0                       ##   No further actions
                                        ## >> Catch TypeInfos <<
	.long	0                       ## TypeInfo 1
	.align	2

	.section	__TEXT,__text,regular,pure_instructions
	.globl	__ZN5LIGHT22Send_AllZero_to_AllOdeEv
	.align	4, 0x90
__ZN5LIGHT22Send_AllZero_to_AllOdeEv:   ## @_ZN5LIGHT22Send_AllZero_to_AllOdeEv
Lfunc_begin4:
	.loc	16 1087 0 is_stmt 1     ## /Users/nobuhiro/Documents/source/openframeworks/of_v0.9.0_osx_release/apps/myApps/Gusha_Entrance/src/Light.cpp:1087:0
	.cfi_startproc
	.cfi_personality 155, ___gxx_personality_v0
	.cfi_lsda 16, Lexception4
## BB#0:                                ## %.preheader
	pushq	%rbp
Ltmp303:
	.cfi_def_cfa_offset 16
Ltmp304:
	.cfi_offset %rbp, -16
	movq	%rsp, %rbp
Ltmp305:
	.cfi_def_cfa_register %rbp
	pushq	%r15
	pushq	%r14
	pushq	%r12
	pushq	%rbx
	subq	$32, %rsp
Ltmp306:
	.cfi_offset %rbx, -48
Ltmp307:
	.cfi_offset %r12, -40
Ltmp308:
	.cfi_offset %r14, -32
Ltmp309:
	.cfi_offset %r15, -24
	##DEBUG_VALUE: Send_AllZero_to_AllOde:this <- RDI
	movq	%rdi, %r15
Ltmp310:
	##DEBUG_VALUE: i <- 0
	##DEBUG_VALUE: Send_AllZero_to_AllOde:this <- R15
	.loc	16 1090 23 prologue_end ## /Users/nobuhiro/Documents/source/openframeworks/of_v0.9.0_osx_release/apps/myApps/Gusha_Entrance/src/Light.cpp:1090:23
	leaq	__ZL3ode+500(%rip), %r14
	movl	$512, %esi              ## imm = 0x200
	movq	%r14, %rdi
	callq	___bzero
	leaq	__ZL3ode(%rip), %rbx
Ltmp311:
	##DEBUG_VALUE: length:__s <- RBX
	.loc	5 640 63                ## /Applications/Xcode.app/Contents/Developer/Toolchains/XcodeDefault.xctoolchain/usr/bin/../include/c++/v1/string:640:63
	movq	%rbx, %rdi
	callq	_strlen
	leaq	-56(%rbp), %r12
Ltmp312:
	##DEBUG_VALUE: basic_string:this <- [R12+0]
	.loc	5 2001 5                ## /Applications/Xcode.app/Contents/Developer/Toolchains/XcodeDefault.xctoolchain/usr/bin/../include/c++/v1/string:2001:5
	movq	%r12, %rdi
	movq	%rbx, %rsi
	movq	%rax, %rdx
	callq	__ZNSt3__112basic_stringIcNS_11char_traitsIcEENS_9allocatorIcEEE6__initEPKcm
Ltmp313:
	.loc	16 1093 3               ## /Users/nobuhiro/Documents/source/openframeworks/of_v0.9.0_osx_release/apps/myApps/Gusha_Entrance/src/Light.cpp:1093:3
Ltmp296:
	movl	$512, %ecx              ## imm = 0x200
	movq	%r15, %rdi
	movq	%r12, %rsi
	movq	%r14, %rdx
	callq	__ZN9ofxArtnet7sendDmxENSt3__112basic_stringIcNS0_11char_traitsIcEENS0_9allocatorIcEEEEPKhi
Ltmp297:
Ltmp314:
## BB#1:                                ## %.preheader.13
	##DEBUG_VALUE: Send_AllZero_to_AllOde:this <- R15
	##DEBUG_VALUE: i <- 0
	leaq	-56(%rbp), %r12
Ltmp315:
	##DEBUG_VALUE: basic_string:this <- [R12+0]
	##DEBUG_VALUE: basic_string:this <- [R12+0]
	movq	%r12, %rdi
	callq	__ZNSt3__112basic_stringIcNS_11char_traitsIcEENS_9allocatorIcEEED1Ev
	.loc	16 1090 23              ## /Users/nobuhiro/Documents/source/openframeworks/of_v0.9.0_osx_release/apps/myApps/Gusha_Entrance/src/Light.cpp:1090:23
Ltmp316:
	leaq	__ZL3ode+1512(%rip), %r14
	movl	$512, %esi              ## imm = 0x200
	movq	%r14, %rdi
	callq	___bzero
	leaq	__ZL3ode+1012(%rip), %rbx
Ltmp317:
	.loc	5 640 63                ## /Applications/Xcode.app/Contents/Developer/Toolchains/XcodeDefault.xctoolchain/usr/bin/../include/c++/v1/string:640:63
	movq	%rbx, %rdi
	callq	_strlen
Ltmp318:
	.loc	5 2001 5                ## /Applications/Xcode.app/Contents/Developer/Toolchains/XcodeDefault.xctoolchain/usr/bin/../include/c++/v1/string:2001:5
	movq	%r12, %rdi
	movq	%rbx, %rsi
	movq	%rax, %rdx
	callq	__ZNSt3__112basic_stringIcNS_11char_traitsIcEENS_9allocatorIcEEE6__initEPKcm
Ltmp319:
	.loc	16 1093 3               ## /Users/nobuhiro/Documents/source/openframeworks/of_v0.9.0_osx_release/apps/myApps/Gusha_Entrance/src/Light.cpp:1093:3
Ltmp298:
	movl	$512, %ecx              ## imm = 0x200
	movq	%r15, %rdi
	movq	%r12, %rsi
	movq	%r14, %rdx
	callq	__ZN9ofxArtnet7sendDmxENSt3__112basic_stringIcNS0_11char_traitsIcEENS0_9allocatorIcEEEEPKhi
Ltmp299:
Ltmp320:
## BB#2:                                ## %.preheader.24
	##DEBUG_VALUE: Send_AllZero_to_AllOde:this <- R15
	##DEBUG_VALUE: i <- 0
	leaq	-56(%rbp), %r12
Ltmp321:
	##DEBUG_VALUE: basic_string:this <- [R12+0]
	##DEBUG_VALUE: basic_string:this <- [R12+0]
	movq	%r12, %rdi
	callq	__ZNSt3__112basic_stringIcNS_11char_traitsIcEENS_9allocatorIcEEED1Ev
	.loc	16 1090 23              ## /Users/nobuhiro/Documents/source/openframeworks/of_v0.9.0_osx_release/apps/myApps/Gusha_Entrance/src/Light.cpp:1090:23
Ltmp322:
	leaq	__ZL3ode+2524(%rip), %r14
	movl	$512, %esi              ## imm = 0x200
	movq	%r14, %rdi
	callq	___bzero
	leaq	__ZL3ode+2024(%rip), %rbx
Ltmp323:
	.loc	5 640 63                ## /Applications/Xcode.app/Contents/Developer/Toolchains/XcodeDefault.xctoolchain/usr/bin/../include/c++/v1/string:640:63
	movq	%rbx, %rdi
	callq	_strlen
Ltmp324:
	.loc	5 2001 5                ## /Applications/Xcode.app/Contents/Developer/Toolchains/XcodeDefault.xctoolchain/usr/bin/../include/c++/v1/string:2001:5
	movq	%r12, %rdi
	movq	%rbx, %rsi
	movq	%rax, %rdx
	callq	__ZNSt3__112basic_stringIcNS_11char_traitsIcEENS_9allocatorIcEEE6__initEPKcm
Ltmp325:
	.loc	16 1093 3               ## /Users/nobuhiro/Documents/source/openframeworks/of_v0.9.0_osx_release/apps/myApps/Gusha_Entrance/src/Light.cpp:1093:3
Ltmp300:
	movl	$512, %ecx              ## imm = 0x200
	movq	%r15, %rdi
	movq	%r12, %rsi
	movq	%r14, %rdx
	callq	__ZN9ofxArtnet7sendDmxENSt3__112basic_stringIcNS0_11char_traitsIcEENS0_9allocatorIcEEEEPKhi
Ltmp301:
Ltmp326:
## BB#3:
	##DEBUG_VALUE: i <- 0
	leaq	-56(%rbp), %rdi
	callq	__ZNSt3__112basic_stringIcNS_11char_traitsIcEENS_9allocatorIcEEED1Ev
Ltmp327:
	.loc	16 1095 1               ## /Users/nobuhiro/Documents/source/openframeworks/of_v0.9.0_osx_release/apps/myApps/Gusha_Entrance/src/Light.cpp:1095:1
	addq	$32, %rsp
	popq	%rbx
	popq	%r12
	popq	%r14
	popq	%r15
	popq	%rbp
	retq
LBB4_4:
Ltmp302:
	##DEBUG_VALUE: i <- 0
	movq	%rax, %rbx
	leaq	-56(%rbp), %rdi
	.loc	16 1093 3               ## /Users/nobuhiro/Documents/source/openframeworks/of_v0.9.0_osx_release/apps/myApps/Gusha_Entrance/src/Light.cpp:1093:3
Ltmp328:
	callq	__ZNSt3__112basic_stringIcNS_11char_traitsIcEENS_9allocatorIcEEED1Ev
	movq	%rbx, %rdi
	callq	__Unwind_Resume
Ltmp329:
Lfunc_end4:
	.cfi_endproc
	.section	__TEXT,__gcc_except_tab
	.align	2
GCC_except_table4:
Lexception4:
	.byte	255                     ## @LPStart Encoding = omit
	.byte	155                     ## @TType Encoding = indirect pcrel sdata4
	.byte	93                      ## @TType base offset
	.byte	3                       ## Call site Encoding = udata4
	.byte	91                      ## Call site table length
Lset40 = Lfunc_begin4-Lfunc_begin4      ## >> Call Site 1 <<
	.long	Lset40
Lset41 = Ltmp296-Lfunc_begin4           ##   Call between Lfunc_begin4 and Ltmp296
	.long	Lset41
	.long	0                       ##     has no landing pad
	.byte	0                       ##   On action: cleanup
Lset42 = Ltmp296-Lfunc_begin4           ## >> Call Site 2 <<
	.long	Lset42
Lset43 = Ltmp297-Ltmp296                ##   Call between Ltmp296 and Ltmp297
	.long	Lset43
Lset44 = Ltmp302-Lfunc_begin4           ##     jumps to Ltmp302
	.long	Lset44
	.byte	0                       ##   On action: cleanup
Lset45 = Ltmp297-Lfunc_begin4           ## >> Call Site 3 <<
	.long	Lset45
Lset46 = Ltmp298-Ltmp297                ##   Call between Ltmp297 and Ltmp298
	.long	Lset46
	.long	0                       ##     has no landing pad
	.byte	0                       ##   On action: cleanup
Lset47 = Ltmp298-Lfunc_begin4           ## >> Call Site 4 <<
	.long	Lset47
Lset48 = Ltmp299-Ltmp298                ##   Call between Ltmp298 and Ltmp299
	.long	Lset48
Lset49 = Ltmp302-Lfunc_begin4           ##     jumps to Ltmp302
	.long	Lset49
	.byte	0                       ##   On action: cleanup
Lset50 = Ltmp299-Lfunc_begin4           ## >> Call Site 5 <<
	.long	Lset50
Lset51 = Ltmp300-Ltmp299                ##   Call between Ltmp299 and Ltmp300
	.long	Lset51
	.long	0                       ##     has no landing pad
	.byte	0                       ##   On action: cleanup
Lset52 = Ltmp300-Lfunc_begin4           ## >> Call Site 6 <<
	.long	Lset52
Lset53 = Ltmp301-Ltmp300                ##   Call between Ltmp300 and Ltmp301
	.long	Lset53
Lset54 = Ltmp302-Lfunc_begin4           ##     jumps to Ltmp302
	.long	Lset54
	.byte	0                       ##   On action: cleanup
Lset55 = Ltmp301-Lfunc_begin4           ## >> Call Site 7 <<
	.long	Lset55
Lset56 = Lfunc_end4-Ltmp301             ##   Call between Ltmp301 and Lfunc_end4
	.long	Lset56
	.long	0                       ##     has no landing pad
	.byte	0                       ##   On action: cleanup
	.align	2

	.section	__TEXT,__textcoal_nt,coalesced,pure_instructions
	.private_extern	___clang_call_terminate
	.globl	___clang_call_terminate
	.weak_def_can_be_hidden	___clang_call_terminate
	.align	4, 0x90
___clang_call_terminate:                ## @__clang_call_terminate
Lfunc_begin5:
	.cfi_startproc
## BB#0:
	pushq	%rbp
Ltmp330:
	.cfi_def_cfa_offset 16
Ltmp331:
	.cfi_offset %rbp, -16
	movq	%rsp, %rbp
Ltmp332:
	.cfi_def_cfa_register %rbp
	callq	___cxa_begin_catch
	callq	__ZSt9terminatev
Lfunc_end5:
	.cfi_endproc

	.section	__TEXT,__text,regular,pure_instructions
	.globl	__ZN5LIGHTD1Ev
	.align	4, 0x90
__ZN5LIGHTD1Ev:                         ## @_ZN5LIGHTD1Ev
Lfunc_begin6:
	.loc	16 130 0                ## /Users/nobuhiro/Documents/source/openframeworks/of_v0.9.0_osx_release/apps/myApps/Gusha_Entrance/src/Light.cpp:130:0
	.cfi_startproc
## BB#0:
	pushq	%rbp
Ltmp333:
	.cfi_def_cfa_offset 16
Ltmp334:
	.cfi_offset %rbp, -16
	movq	%rsp, %rbp
Ltmp335:
	.cfi_def_cfa_register %rbp
	##DEBUG_VALUE: ~LIGHT:this <- RDI
	.loc	16 130 1 prologue_end   ## /Users/nobuhiro/Documents/source/openframeworks/of_v0.9.0_osx_release/apps/myApps/Gusha_Entrance/src/Light.cpp:130:1
Ltmp336:
	popq	%rbp
	.loc	16 0 0                  ## /Users/nobuhiro/Documents/source/openframeworks/of_v0.9.0_osx_release/apps/myApps/Gusha_Entrance/src/Light.cpp:0:0
	jmp	__ZN5LIGHTD2Ev          ## TAILCALL
Ltmp337:
Lfunc_end6:
	.cfi_endproc

	.globl	__ZN5LIGHT4exitEv
	.align	4, 0x90
__ZN5LIGHT4exitEv:                      ## @_ZN5LIGHT4exitEv
Lfunc_begin7:
	.loc	16 141 0                ## /Users/nobuhiro/Documents/source/openframeworks/of_v0.9.0_osx_release/apps/myApps/Gusha_Entrance/src/Light.cpp:141:0
	.cfi_startproc
## BB#0:
	pushq	%rbp
Ltmp338:
	.cfi_def_cfa_offset 16
Ltmp339:
	.cfi_offset %rbp, -16
	movq	%rsp, %rbp
Ltmp340:
	.cfi_def_cfa_register %rbp
	##DEBUG_VALUE: exit:this <- RDI
	.loc	16 142 1 prologue_end   ## /Users/nobuhiro/Documents/source/openframeworks/of_v0.9.0_osx_release/apps/myApps/Gusha_Entrance/src/Light.cpp:142:1
Ltmp341:
	popq	%rbp
	retq
Ltmp342:
Lfunc_end7:
	.cfi_endproc

	.globl	__ZN5LIGHT4testEv
	.align	4, 0x90
__ZN5LIGHT4testEv:                      ## @_ZN5LIGHT4testEv
Lfunc_begin8:
	.loc	16 149 0                ## /Users/nobuhiro/Documents/source/openframeworks/of_v0.9.0_osx_release/apps/myApps/Gusha_Entrance/src/Light.cpp:149:0
	.cfi_startproc
## BB#0:
	pushq	%rbp
Ltmp343:
	.cfi_def_cfa_offset 16
Ltmp344:
	.cfi_offset %rbp, -16
	movq	%rsp, %rbp
Ltmp345:
	.cfi_def_cfa_register %rbp
	.loc	16 152 2 prologue_end   ## /Users/nobuhiro/Documents/source/openframeworks/of_v0.9.0_osx_release/apps/myApps/Gusha_Entrance/src/Light.cpp:152:2
Ltmp346:
	pushq	%r15
	pushq	%r14
	pushq	%r13
	pushq	%r12
	pushq	%rbx
	subq	$40, %rsp
Ltmp347:
	.cfi_offset %rbx, -56
Ltmp348:
	.cfi_offset %r12, -48
Ltmp349:
	.cfi_offset %r13, -40
Ltmp350:
	.cfi_offset %r14, -32
Ltmp351:
	.cfi_offset %r15, -24
	##DEBUG_VALUE: test:this <- RDI
	leaq	L_.str15(%rip), %rdi
Ltmp352:
	movl	$3, %esi
	xorl	%eax, %eax
	callq	_printf
	.loc	16 156 2                ## /Users/nobuhiro/Documents/source/openframeworks/of_v0.9.0_osx_release/apps/myApps/Gusha_Entrance/src/Light.cpp:156:2
	leaq	L_.str16(%rip), %rdi
	movl	$26, %esi
	xorl	%eax, %eax
	callq	_printf
	.loc	16 157 2                ## /Users/nobuhiro/Documents/source/openframeworks/of_v0.9.0_osx_release/apps/myApps/Gusha_Entrance/src/Light.cpp:157:2
	leaq	L_str(%rip), %rdi
	callq	_puts
Ltmp353:
	##DEBUG_VALUE: i <- 0
	.loc	16 159 15               ## /Users/nobuhiro/Documents/source/openframeworks/of_v0.9.0_osx_release/apps/myApps/Gusha_Entrance/src/Light.cpp:159:15
	cmpl	$2, __ZL8LedLight(%rip)
	jg	LBB8_26
Ltmp354:
## BB#1:
	##DEBUG_VALUE: test:this <- RDI
	cmpl	$2, __ZL8LedLight+80(%rip)
	jg	LBB8_26
Ltmp355:
## BB#2:
	##DEBUG_VALUE: test:this <- RDI
	cmpl	$2, __ZL8LedLight+160(%rip)
	jg	LBB8_26
Ltmp356:
## BB#3:
	##DEBUG_VALUE: test:this <- RDI
	cmpl	$2, __ZL8LedLight+240(%rip)
	jg	LBB8_26
Ltmp357:
## BB#4:
	##DEBUG_VALUE: test:this <- RDI
	cmpl	$2, __ZL8LedLight+320(%rip)
	jg	LBB8_26
Ltmp358:
## BB#5:
	##DEBUG_VALUE: test:this <- RDI
	cmpl	$2, __ZL8LedLight+400(%rip)
	jg	LBB8_26
Ltmp359:
## BB#6:
	##DEBUG_VALUE: test:this <- RDI
	cmpl	$2, __ZL8LedLight+480(%rip)
	jg	LBB8_26
Ltmp360:
## BB#7:
	##DEBUG_VALUE: test:this <- RDI
	cmpl	$2, __ZL8LedLight+560(%rip)
	jg	LBB8_26
Ltmp361:
## BB#8:
	##DEBUG_VALUE: test:this <- RDI
	cmpl	$2, __ZL8LedLight+640(%rip)
	jg	LBB8_26
Ltmp362:
## BB#9:
	##DEBUG_VALUE: test:this <- RDI
	cmpl	$2, __ZL8LedLight+720(%rip)
	jg	LBB8_26
Ltmp363:
## BB#10:
	##DEBUG_VALUE: test:this <- RDI
	cmpl	$2, __ZL8LedLight+800(%rip)
	jg	LBB8_26
Ltmp364:
## BB#11:
	##DEBUG_VALUE: test:this <- RDI
	cmpl	$2, __ZL8LedLight+880(%rip)
	jg	LBB8_26
Ltmp365:
## BB#12:
	##DEBUG_VALUE: test:this <- RDI
	cmpl	$2, __ZL8LedLight+960(%rip)
	jg	LBB8_26
Ltmp366:
## BB#13:
	##DEBUG_VALUE: test:this <- RDI
	cmpl	$2, __ZL8LedLight+1040(%rip)
	jg	LBB8_26
Ltmp367:
## BB#14:
	##DEBUG_VALUE: test:this <- RDI
	cmpl	$2, __ZL8LedLight+1120(%rip)
	jg	LBB8_26
Ltmp368:
## BB#15:
	##DEBUG_VALUE: test:this <- RDI
	cmpl	$2, __ZL8LedLight+1200(%rip)
	jg	LBB8_26
Ltmp369:
## BB#16:
	##DEBUG_VALUE: test:this <- RDI
	cmpl	$2, __ZL8LedLight+1280(%rip)
	jg	LBB8_26
Ltmp370:
## BB#17:
	##DEBUG_VALUE: test:this <- RDI
	cmpl	$2, __ZL8LedLight+1360(%rip)
	jg	LBB8_26
Ltmp371:
## BB#18:
	##DEBUG_VALUE: test:this <- RDI
	cmpl	$2, __ZL8LedLight+1440(%rip)
	jg	LBB8_26
Ltmp372:
## BB#19:
	##DEBUG_VALUE: test:this <- RDI
	cmpl	$2, __ZL8LedLight+1520(%rip)
	jg	LBB8_26
Ltmp373:
## BB#20:
	##DEBUG_VALUE: test:this <- RDI
	cmpl	$2, __ZL8LedLight+1600(%rip)
	jg	LBB8_26
Ltmp374:
## BB#21:
	##DEBUG_VALUE: test:this <- RDI
	cmpl	$2, __ZL8LedLight+1680(%rip)
	jg	LBB8_26
Ltmp375:
## BB#22:
	##DEBUG_VALUE: test:this <- RDI
	cmpl	$2, __ZL8LedLight+1760(%rip)
	jg	LBB8_26
Ltmp376:
## BB#23:
	##DEBUG_VALUE: test:this <- RDI
	cmpl	$2, __ZL8LedLight+1840(%rip)
	jg	LBB8_26
Ltmp377:
## BB#24:
	##DEBUG_VALUE: test:this <- RDI
	cmpl	$2, __ZL8LedLight+1920(%rip)
	jg	LBB8_26
Ltmp378:
## BB#25:
	##DEBUG_VALUE: test:this <- RDI
	cmpl	$3, __ZL8LedLight+2000(%rip)
	jge	LBB8_26
Ltmp379:
## BB#28:
	##DEBUG_VALUE: test:this <- RDI
	.loc	16 161 2                ## /Users/nobuhiro/Documents/source/openframeworks/of_v0.9.0_osx_release/apps/myApps/Gusha_Entrance/src/Light.cpp:161:2
	leaq	L_str69(%rip), %rdi
Ltmp380:
	callq	_puts
	.loc	16 165 2                ## /Users/nobuhiro/Documents/source/openframeworks/of_v0.9.0_osx_release/apps/myApps/Gusha_Entrance/src/Light.cpp:165:2
	leaq	L_.str21(%rip), %rdi
	movl	$5, %esi
	xorl	%eax, %eax
	callq	_printf
	.loc	16 169 2                ## /Users/nobuhiro/Documents/source/openframeworks/of_v0.9.0_osx_release/apps/myApps/Gusha_Entrance/src/Light.cpp:169:2
	leaq	L_str59(%rip), %rdi
	callq	_puts
	leaq	__ZL8LedBlock+16(%rip), %rax
	movq	%rax, -72(%rbp)         ## 8-byte Spill
	leaq	__ZL8LedBlock(%rip), %rax
Ltmp381:
	##DEBUG_VALUE: i <- 0
	.loc	16 177 5                ## /Users/nobuhiro/Documents/source/openframeworks/of_v0.9.0_osx_release/apps/myApps/Gusha_Entrance/src/Light.cpp:177:5
	leaq	L_.str25(%rip), %r13
	movq	%rax, -80(%rbp)         ## 8-byte Spill
	xorl	%ebx, %ebx
Ltmp382:
	.align	4, 0x90
LBB8_29:                                ## =>This Loop Header: Depth=1
                                        ##     Child Loop BB8_31 Depth 2
                                        ##       Child Loop BB8_32 Depth 3
                                        ##       Child Loop BB8_36 Depth 3
	##DEBUG_VALUE: test:this <- RDI
	##DEBUG_VALUE: i <- 0
	.loc	16 171 43               ## /Users/nobuhiro/Documents/source/openframeworks/of_v0.9.0_osx_release/apps/myApps/Gusha_Entrance/src/Light.cpp:171:43
	movq	%rbx, -64(%rbp)         ## 8-byte Spill
	imulq	$8072, %rbx, %rsi       ## imm = 0x1F88
	leaq	__ZL8LedBlock(%rip), %rax
	addq	%rax, %rsi
	.loc	16 171 23 is_stmt 0     ## /Users/nobuhiro/Documents/source/openframeworks/of_v0.9.0_osx_release/apps/myApps/Gusha_Entrance/src/Light.cpp:171:23
	callq	__ZN5LIGHT19Count_NumLogicalChsERK9LED_BLOCK
	movl	%eax, %r14d
Ltmp383:
	##DEBUG_VALUE: NumLogicalChs <- R14D
	xorl	%eax, %eax
	.loc	16 172 3 is_stmt 1      ## /Users/nobuhiro/Documents/source/openframeworks/of_v0.9.0_osx_release/apps/myApps/Gusha_Entrance/src/Light.cpp:172:3
	leaq	L_.str23(%rip), %rdi
Ltmp384:
	movl	%ebx, %esi
	callq	_printf
Ltmp385:
	##DEBUG_VALUE: j <- 0
	.loc	16 173 3                ## /Users/nobuhiro/Documents/source/openframeworks/of_v0.9.0_osx_release/apps/myApps/Gusha_Entrance/src/Light.cpp:173:3
	testl	%r14d, %r14d
	jle	LBB8_38
Ltmp386:
## BB#30:                               ## %.lr.ph11
                                        ##   in Loop: Header=BB8_29 Depth=1
	##DEBUG_VALUE: test:this <- RDI
	##DEBUG_VALUE: NumLogicalChs <- R14D
	##DEBUG_VALUE: j <- 0
	##DEBUG_VALUE: i <- 0
	movslq	%r14d, %rax
	movq	%rax, -56(%rbp)         ## 8-byte Spill
	movq	-80(%rbp), %rbx         ## 8-byte Reload
	movq	-72(%rbp), %rcx         ## 8-byte Reload
	xorl	%r15d, %r15d
Ltmp387:
	.align	4, 0x90
LBB8_31:                                ##   Parent Loop BB8_29 Depth=1
                                        ## =>  This Loop Header: Depth=2
                                        ##       Child Loop BB8_32 Depth 3
                                        ##       Child Loop BB8_36 Depth 3
	##DEBUG_VALUE: test:this <- RDI
	##DEBUG_VALUE: Count_NumPhysicalChs:i <- 0
	movq	%rcx, %rax
	xorl	%r14d, %r14d
Ltmp388:
	.align	4, 0x90
LBB8_32:                                ##   Parent Loop BB8_29 Depth=1
                                        ##     Parent Loop BB8_31 Depth=2
                                        ## =>    This Inner Loop Header: Depth=3
	##DEBUG_VALUE: test:this <- RDI
	##DEBUG_VALUE: Count_NumPhysicalChs:i <- 0
	.loc	16 449 30               ## /Users/nobuhiro/Documents/source/openframeworks/of_v0.9.0_osx_release/apps/myApps/Gusha_Entrance/src/Light.cpp:449:30
	cmpl	$-1, -16(%rax)
	je	LBB8_34
Ltmp389:
## BB#33:                               ##   in Loop: Header=BB8_32 Depth=3
	##DEBUG_VALUE: test:this <- RDI
	##DEBUG_VALUE: Count_NumPhysicalChs:i <- 0
	.loc	16 448 2                ## /Users/nobuhiro/Documents/source/openframeworks/of_v0.9.0_osx_release/apps/myApps/Gusha_Entrance/src/Light.cpp:448:2
	incq	%r14
	.loc	16 449 30               ## /Users/nobuhiro/Documents/source/openframeworks/of_v0.9.0_osx_release/apps/myApps/Gusha_Entrance/src/Light.cpp:449:30
Ltmp390:
	cmpl	$-1, -12(%rax)
	je	LBB8_34
Ltmp391:
## BB#43:                               ##   in Loop: Header=BB8_32 Depth=3
	##DEBUG_VALUE: test:this <- RDI
	##DEBUG_VALUE: Count_NumPhysicalChs:i <- 0
	.loc	16 448 2                ## /Users/nobuhiro/Documents/source/openframeworks/of_v0.9.0_osx_release/apps/myApps/Gusha_Entrance/src/Light.cpp:448:2
	incq	%r14
	.loc	16 449 30               ## /Users/nobuhiro/Documents/source/openframeworks/of_v0.9.0_osx_release/apps/myApps/Gusha_Entrance/src/Light.cpp:449:30
Ltmp392:
	cmpl	$-1, -8(%rax)
	je	LBB8_34
Ltmp393:
## BB#44:                               ##   in Loop: Header=BB8_32 Depth=3
	##DEBUG_VALUE: test:this <- RDI
	##DEBUG_VALUE: Count_NumPhysicalChs:i <- 0
	.loc	16 448 2                ## /Users/nobuhiro/Documents/source/openframeworks/of_v0.9.0_osx_release/apps/myApps/Gusha_Entrance/src/Light.cpp:448:2
	incq	%r14
	.loc	16 449 30               ## /Users/nobuhiro/Documents/source/openframeworks/of_v0.9.0_osx_release/apps/myApps/Gusha_Entrance/src/Light.cpp:449:30
Ltmp394:
	cmpl	$-1, -4(%rax)
	je	LBB8_34
Ltmp395:
## BB#45:                               ##   in Loop: Header=BB8_32 Depth=3
	##DEBUG_VALUE: test:this <- RDI
	##DEBUG_VALUE: Count_NumPhysicalChs:i <- 0
	.loc	16 448 2                ## /Users/nobuhiro/Documents/source/openframeworks/of_v0.9.0_osx_release/apps/myApps/Gusha_Entrance/src/Light.cpp:448:2
	incq	%r14
	.loc	16 449 30               ## /Users/nobuhiro/Documents/source/openframeworks/of_v0.9.0_osx_release/apps/myApps/Gusha_Entrance/src/Light.cpp:449:30
Ltmp396:
	cmpl	$-1, (%rax)
	je	LBB8_34
Ltmp397:
## BB#40:                               ##   in Loop: Header=BB8_32 Depth=3
	##DEBUG_VALUE: test:this <- RDI
	##DEBUG_VALUE: Count_NumPhysicalChs:i <- 0
	.loc	16 448 2                ## /Users/nobuhiro/Documents/source/openframeworks/of_v0.9.0_osx_release/apps/myApps/Gusha_Entrance/src/Light.cpp:448:2
	incq	%r14
	.loc	16 448 15 is_stmt 0     ## /Users/nobuhiro/Documents/source/openframeworks/of_v0.9.0_osx_release/apps/myApps/Gusha_Entrance/src/Light.cpp:448:15
Ltmp398:
	addq	$20, %rax
	cmpq	$50, %r14
	jl	LBB8_32
Ltmp399:
## BB#41:                               ##   in Loop: Header=BB8_31 Depth=2
	##DEBUG_VALUE: test:this <- RDI
	##DEBUG_VALUE: Count_NumPhysicalChs:i <- 0
	movq	%rcx, -48(%rbp)         ## 8-byte Spill
	.loc	16 451 5 is_stmt 1      ## /Users/nobuhiro/Documents/source/openframeworks/of_v0.9.0_osx_release/apps/myApps/Gusha_Entrance/src/Light.cpp:451:5
	cmpl	$50, %r14d
	jne	LBB8_35
	jmp	LBB8_42
Ltmp400:
	.align	4, 0x90
LBB8_34:                                ##   in Loop: Header=BB8_31 Depth=2
	##DEBUG_VALUE: test:this <- RDI
	movq	%rcx, -48(%rbp)         ## 8-byte Spill
Ltmp401:
LBB8_35:                                ## %_ZN5LIGHT20Count_NumPhysicalChsERK15PHYSICAL_CH_SET.exit
                                        ##   in Loop: Header=BB8_31 Depth=2
	##DEBUG_VALUE: test:this <- RDI
	xorl	%eax, %eax
	.loc	16 175 4                ## /Users/nobuhiro/Documents/source/openframeworks/of_v0.9.0_osx_release/apps/myApps/Gusha_Entrance/src/Light.cpp:175:4
	leaq	L_.str24(%rip), %rdi
Ltmp402:
	movl	%r15d, %esi
	callq	_printf
Ltmp403:
	##DEBUG_VALUE: k <- 0
	.loc	16 176 4                ## /Users/nobuhiro/Documents/source/openframeworks/of_v0.9.0_osx_release/apps/myApps/Gusha_Entrance/src/Light.cpp:176:4
	testl	%r14d, %r14d
Ltmp404:
	##DEBUG_VALUE: NumPhysicalChs <- R14D
	movq	%rbx, %r12
	jle	LBB8_37
Ltmp405:
	.align	4, 0x90
LBB8_36:                                ##   Parent Loop BB8_29 Depth=1
                                        ##     Parent Loop BB8_31 Depth=2
                                        ## =>    This Inner Loop Header: Depth=3
	##DEBUG_VALUE: test:this <- RDI
	##DEBUG_VALUE: k <- 0
	.loc	16 177 20               ## /Users/nobuhiro/Documents/source/openframeworks/of_v0.9.0_osx_release/apps/myApps/Gusha_Entrance/src/Light.cpp:177:20
	movl	(%r12), %esi
	xorl	%eax, %eax
	.loc	16 177 5 is_stmt 0      ## /Users/nobuhiro/Documents/source/openframeworks/of_v0.9.0_osx_release/apps/myApps/Gusha_Entrance/src/Light.cpp:177:5
	movq	%r13, %rdi
Ltmp406:
	callq	_printf
Ltmp407:
	.loc	16 176 4 is_stmt 1      ## /Users/nobuhiro/Documents/source/openframeworks/of_v0.9.0_osx_release/apps/myApps/Gusha_Entrance/src/Light.cpp:176:4
	addq	$4, %r12
	decl	%r14d
	jne	LBB8_36
Ltmp408:
LBB8_37:                                ## %._crit_edge
                                        ##   in Loop: Header=BB8_31 Depth=2
	##DEBUG_VALUE: test:this <- RDI
	movl	$10, %edi
Ltmp409:
	.loc	16 179 4                ## /Users/nobuhiro/Documents/source/openframeworks/of_v0.9.0_osx_release/apps/myApps/Gusha_Entrance/src/Light.cpp:179:4
	callq	_putchar
Ltmp410:
	.loc	16 173 3                ## /Users/nobuhiro/Documents/source/openframeworks/of_v0.9.0_osx_release/apps/myApps/Gusha_Entrance/src/Light.cpp:173:3
	incq	%r15
	movq	-48(%rbp), %rcx         ## 8-byte Reload
	addq	$204, %rcx
	addq	$204, %rbx
	.loc	16 173 20 is_stmt 0     ## /Users/nobuhiro/Documents/source/openframeworks/of_v0.9.0_osx_release/apps/myApps/Gusha_Entrance/src/Light.cpp:173:20
Ltmp411:
	cmpq	-56(%rbp), %r15         ## 8-byte Folded Reload
	jl	LBB8_31
Ltmp412:
LBB8_38:                                ## %._crit_edge12
                                        ##   in Loop: Header=BB8_29 Depth=1
	##DEBUG_VALUE: test:this <- RDI
	##DEBUG_VALUE: i <- 0
	movl	$10, %edi
Ltmp413:
	.loc	16 181 3 is_stmt 1      ## /Users/nobuhiro/Documents/source/openframeworks/of_v0.9.0_osx_release/apps/myApps/Gusha_Entrance/src/Light.cpp:181:3
	callq	_putchar
	movq	-64(%rbp), %rbx         ## 8-byte Reload
Ltmp414:
	.loc	16 170 2                ## /Users/nobuhiro/Documents/source/openframeworks/of_v0.9.0_osx_release/apps/myApps/Gusha_Entrance/src/Light.cpp:170:2
	incq	%rbx
	addq	$8072, -72(%rbp)        ## 8-byte Folded Spill
                                        ## imm = 0x1F88
	addq	$8072, -80(%rbp)        ## 8-byte Folded Spill
                                        ## imm = 0x1F88
	.loc	16 170 19 is_stmt 0     ## /Users/nobuhiro/Documents/source/openframeworks/of_v0.9.0_osx_release/apps/myApps/Gusha_Entrance/src/Light.cpp:170:19
Ltmp415:
	cmpq	$5, %rbx
	jl	LBB8_29
Ltmp416:
## BB#39:
	##DEBUG_VALUE: test:this <- RDI
	.loc	16 183 2 is_stmt 1      ## /Users/nobuhiro/Documents/source/openframeworks/of_v0.9.0_osx_release/apps/myApps/Gusha_Entrance/src/Light.cpp:183:2
	leaq	L_str69(%rip), %rdi
Ltmp417:
	callq	_puts
	.loc	16 187 2                ## /Users/nobuhiro/Documents/source/openframeworks/of_v0.9.0_osx_release/apps/myApps/Gusha_Entrance/src/Light.cpp:187:2
	callq	__ZN5LIGHT20check_DesignFunc_LumEv
	.loc	16 188 2                ## /Users/nobuhiro/Documents/source/openframeworks/of_v0.9.0_osx_release/apps/myApps/Gusha_Entrance/src/Light.cpp:188:2
	callq	__ZN5LIGHT20check_DesignFunc_PosEv
	.loc	16 192 2                ## /Users/nobuhiro/Documents/source/openframeworks/of_v0.9.0_osx_release/apps/myApps/Gusha_Entrance/src/Light.cpp:192:2
	callq	__ZN5LIGHT17check_DesignTableEv
	.loc	16 196 2                ## /Users/nobuhiro/Documents/source/openframeworks/of_v0.9.0_osx_release/apps/myApps/Gusha_Entrance/src/Light.cpp:196:2
	leaq	L_str61(%rip), %rdi
	addq	$40, %rsp
	popq	%rbx
	popq	%r12
	popq	%r13
	popq	%r14
	popq	%r15
	popq	%rbp
	jmp	_puts                   ## TAILCALL
LBB8_42:
Ltmp418:
	##DEBUG_VALUE: test:this <- RDI
	##DEBUG_VALUE: Count_NumPhysicalChs:i <- 0
	.loc	16 452 3                ## /Users/nobuhiro/Documents/source/openframeworks/of_v0.9.0_osx_release/apps/myApps/Gusha_Entrance/src/Light.cpp:452:3
	leaq	L_.str18(%rip), %rdi
Ltmp419:
	leaq	L_.str19(%rip), %rsi
	movl	$452, %edx              ## imm = 0x1C4
Ltmp420:
LBB8_27:
	xorl	%eax, %eax
	.loc	16 159 40               ## /Users/nobuhiro/Documents/source/openframeworks/of_v0.9.0_osx_release/apps/myApps/Gusha_Entrance/src/Light.cpp:159:40
Ltmp421:
	callq	_printf
	movl	$1, %edi
	.loc	16 159 53 is_stmt 0     ## /Users/nobuhiro/Documents/source/openframeworks/of_v0.9.0_osx_release/apps/myApps/Gusha_Entrance/src/Light.cpp:159:53
	callq	_exit
LBB8_26:
Ltmp422:
	##DEBUG_VALUE: test:this <- RDI
	##DEBUG_VALUE: i <- 0
	.loc	16 159 40               ## /Users/nobuhiro/Documents/source/openframeworks/of_v0.9.0_osx_release/apps/myApps/Gusha_Entrance/src/Light.cpp:159:40
	leaq	L_.str18(%rip), %rdi
Ltmp423:
	leaq	L_.str19(%rip), %rsi
	movl	$159, %edx
	jmp	LBB8_27
Ltmp424:
Lfunc_end8:
	.cfi_endproc

	.globl	__ZN5LIGHT19Count_NumLogicalChsERK9LED_BLOCK
	.align	4, 0x90
__ZN5LIGHT19Count_NumLogicalChsERK9LED_BLOCK: ## @_ZN5LIGHT19Count_NumLogicalChsERK9LED_BLOCK
Lfunc_begin9:
	.loc	16 431 0 is_stmt 1      ## /Users/nobuhiro/Documents/source/openframeworks/of_v0.9.0_osx_release/apps/myApps/Gusha_Entrance/src/Light.cpp:431:0
	.cfi_startproc
## BB#0:
	pushq	%rbp
Ltmp425:
	.cfi_def_cfa_offset 16
Ltmp426:
	.cfi_offset %rbp, -16
	movq	%rsp, %rbp
Ltmp427:
	.cfi_def_cfa_register %rbp
	##DEBUG_VALUE: Count_NumLogicalChs:this <- RDI
	##DEBUG_VALUE: Count_NumLogicalChs:LedBlock <- RSI
Ltmp428:
	##DEBUG_VALUE: Count_NumLogicalChs:i <- 0
	xorl	%eax, %eax
	.loc	16 434 42 prologue_end  ## /Users/nobuhiro/Documents/source/openframeworks/of_v0.9.0_osx_release/apps/myApps/Gusha_Entrance/src/Light.cpp:434:42
Ltmp429:
	cmpl	$-1, (%rsi)
	je	LBB9_20
Ltmp430:
## BB#1:
	##DEBUG_VALUE: Count_NumLogicalChs:this <- RDI
	##DEBUG_VALUE: Count_NumLogicalChs:LedBlock <- RSI
	##DEBUG_VALUE: Count_NumLogicalChs:i <- 0
	movl	$1, %eax
	cmpl	$-1, 204(%rsi)
	je	LBB9_20
Ltmp431:
## BB#2:
	##DEBUG_VALUE: Count_NumLogicalChs:this <- RDI
	##DEBUG_VALUE: Count_NumLogicalChs:LedBlock <- RSI
	##DEBUG_VALUE: Count_NumLogicalChs:i <- 0
	movl	$2, %eax
	cmpl	$-1, 408(%rsi)
	je	LBB9_20
Ltmp432:
## BB#3:
	##DEBUG_VALUE: Count_NumLogicalChs:this <- RDI
	##DEBUG_VALUE: Count_NumLogicalChs:LedBlock <- RSI
	##DEBUG_VALUE: Count_NumLogicalChs:i <- 0
	movl	$3, %eax
	cmpl	$-1, 612(%rsi)
	je	LBB9_20
Ltmp433:
## BB#4:
	##DEBUG_VALUE: Count_NumLogicalChs:this <- RDI
	##DEBUG_VALUE: Count_NumLogicalChs:LedBlock <- RSI
	##DEBUG_VALUE: Count_NumLogicalChs:i <- 0
	movl	$4, %eax
	cmpl	$-1, 816(%rsi)
	je	LBB9_20
Ltmp434:
## BB#5:
	##DEBUG_VALUE: Count_NumLogicalChs:this <- RDI
	##DEBUG_VALUE: Count_NumLogicalChs:LedBlock <- RSI
	##DEBUG_VALUE: Count_NumLogicalChs:i <- 0
	movl	$5, %eax
	cmpl	$-1, 1020(%rsi)
	je	LBB9_20
Ltmp435:
## BB#6:
	##DEBUG_VALUE: Count_NumLogicalChs:this <- RDI
	##DEBUG_VALUE: Count_NumLogicalChs:LedBlock <- RSI
	##DEBUG_VALUE: Count_NumLogicalChs:i <- 0
	movl	$6, %eax
	cmpl	$-1, 1224(%rsi)
	je	LBB9_20
Ltmp436:
## BB#7:
	##DEBUG_VALUE: Count_NumLogicalChs:this <- RDI
	##DEBUG_VALUE: Count_NumLogicalChs:LedBlock <- RSI
	##DEBUG_VALUE: Count_NumLogicalChs:i <- 0
	movl	$7, %eax
	cmpl	$-1, 1428(%rsi)
	je	LBB9_20
Ltmp437:
## BB#8:
	##DEBUG_VALUE: Count_NumLogicalChs:this <- RDI
	##DEBUG_VALUE: Count_NumLogicalChs:LedBlock <- RSI
	##DEBUG_VALUE: Count_NumLogicalChs:i <- 0
	movl	$8, %eax
	cmpl	$-1, 1632(%rsi)
	je	LBB9_20
Ltmp438:
## BB#9:
	##DEBUG_VALUE: Count_NumLogicalChs:this <- RDI
	##DEBUG_VALUE: Count_NumLogicalChs:LedBlock <- RSI
	##DEBUG_VALUE: Count_NumLogicalChs:i <- 0
	movl	$9, %eax
	cmpl	$-1, 1836(%rsi)
	je	LBB9_20
Ltmp439:
## BB#10:
	##DEBUG_VALUE: Count_NumLogicalChs:this <- RDI
	##DEBUG_VALUE: Count_NumLogicalChs:LedBlock <- RSI
	##DEBUG_VALUE: Count_NumLogicalChs:i <- 0
	movl	$10, %eax
	cmpl	$-1, 2040(%rsi)
	je	LBB9_20
Ltmp440:
## BB#11:
	##DEBUG_VALUE: Count_NumLogicalChs:this <- RDI
	##DEBUG_VALUE: Count_NumLogicalChs:LedBlock <- RSI
	##DEBUG_VALUE: Count_NumLogicalChs:i <- 0
	movl	$11, %eax
	cmpl	$-1, 2244(%rsi)
	je	LBB9_20
Ltmp441:
## BB#12:
	##DEBUG_VALUE: Count_NumLogicalChs:this <- RDI
	##DEBUG_VALUE: Count_NumLogicalChs:LedBlock <- RSI
	##DEBUG_VALUE: Count_NumLogicalChs:i <- 0
	movl	$12, %eax
	cmpl	$-1, 2448(%rsi)
	je	LBB9_20
Ltmp442:
## BB#13:
	##DEBUG_VALUE: Count_NumLogicalChs:this <- RDI
	##DEBUG_VALUE: Count_NumLogicalChs:LedBlock <- RSI
	##DEBUG_VALUE: Count_NumLogicalChs:i <- 0
	movl	$13, %eax
	cmpl	$-1, 2652(%rsi)
	je	LBB9_20
Ltmp443:
## BB#14:
	##DEBUG_VALUE: Count_NumLogicalChs:this <- RDI
	##DEBUG_VALUE: Count_NumLogicalChs:LedBlock <- RSI
	##DEBUG_VALUE: Count_NumLogicalChs:i <- 0
	movl	$14, %eax
	cmpl	$-1, 2856(%rsi)
	je	LBB9_20
Ltmp444:
## BB#15:
	##DEBUG_VALUE: Count_NumLogicalChs:this <- RDI
	##DEBUG_VALUE: Count_NumLogicalChs:LedBlock <- RSI
	##DEBUG_VALUE: Count_NumLogicalChs:i <- 0
	movl	$15, %eax
	cmpl	$-1, 3060(%rsi)
	je	LBB9_20
Ltmp445:
## BB#16:
	##DEBUG_VALUE: Count_NumLogicalChs:this <- RDI
	##DEBUG_VALUE: Count_NumLogicalChs:LedBlock <- RSI
	##DEBUG_VALUE: Count_NumLogicalChs:i <- 0
	movl	$16, %eax
	cmpl	$-1, 3264(%rsi)
	je	LBB9_20
Ltmp446:
## BB#17:
	##DEBUG_VALUE: Count_NumLogicalChs:this <- RDI
	##DEBUG_VALUE: Count_NumLogicalChs:LedBlock <- RSI
	##DEBUG_VALUE: Count_NumLogicalChs:i <- 0
	movl	$17, %eax
	cmpl	$-1, 3468(%rsi)
	je	LBB9_20
Ltmp447:
## BB#18:
	##DEBUG_VALUE: Count_NumLogicalChs:this <- RDI
	##DEBUG_VALUE: Count_NumLogicalChs:LedBlock <- RSI
	##DEBUG_VALUE: Count_NumLogicalChs:i <- 0
	movl	$18, %eax
	cmpl	$-1, 3672(%rsi)
	je	LBB9_20
Ltmp448:
## BB#19:
	##DEBUG_VALUE: Count_NumLogicalChs:this <- RDI
	##DEBUG_VALUE: Count_NumLogicalChs:LedBlock <- RSI
	##DEBUG_VALUE: Count_NumLogicalChs:i <- 0
	movl	$19, %eax
	cmpl	$-1, 3876(%rsi)
	jne	LBB9_21
Ltmp449:
LBB9_20:                                ## %.thread
	##DEBUG_VALUE: Count_NumLogicalChs:this <- RDI
	##DEBUG_VALUE: Count_NumLogicalChs:i <- 0
	.loc	16 440 2                ## /Users/nobuhiro/Documents/source/openframeworks/of_v0.9.0_osx_release/apps/myApps/Gusha_Entrance/src/Light.cpp:440:2
	popq	%rbp
	retq
Ltmp450:
LBB9_21:
	##DEBUG_VALUE: Count_NumLogicalChs:this <- RDI
	##DEBUG_VALUE: Count_NumLogicalChs:i <- 0
	.loc	16 437 3                ## /Users/nobuhiro/Documents/source/openframeworks/of_v0.9.0_osx_release/apps/myApps/Gusha_Entrance/src/Light.cpp:437:3
	leaq	L_.str18(%rip), %rdi
Ltmp451:
	leaq	L_.str19(%rip), %rsi
	movl	$437, %edx              ## imm = 0x1B5
	xorl	%eax, %eax
	callq	_printf
	movl	$1, %edi
	.loc	16 437 16 is_stmt 0     ## /Users/nobuhiro/Documents/source/openframeworks/of_v0.9.0_osx_release/apps/myApps/Gusha_Entrance/src/Light.cpp:437:16
	callq	_exit
Ltmp452:
Lfunc_end9:
	.cfi_endproc

	.globl	__ZN5LIGHT20Count_NumPhysicalChsERK15PHYSICAL_CH_SET
	.align	4, 0x90
__ZN5LIGHT20Count_NumPhysicalChsERK15PHYSICAL_CH_SET: ## @_ZN5LIGHT20Count_NumPhysicalChsERK15PHYSICAL_CH_SET
Lfunc_begin10:
	.loc	16 446 0 is_stmt 1      ## /Users/nobuhiro/Documents/source/openframeworks/of_v0.9.0_osx_release/apps/myApps/Gusha_Entrance/src/Light.cpp:446:0
	.cfi_startproc
## BB#0:
	pushq	%rbp
Ltmp453:
	.cfi_def_cfa_offset 16
Ltmp454:
	.cfi_offset %rbp, -16
	movq	%rsp, %rbp
Ltmp455:
	.cfi_def_cfa_register %rbp
	##DEBUG_VALUE: Count_NumPhysicalChs:this <- RDI
	##DEBUG_VALUE: Count_NumPhysicalChs:LogicalCh <- RSI
	xorl	%eax, %eax
	movl	$2, %ecx
Ltmp456:
	##DEBUG_VALUE: Count_NumPhysicalChs:i <- 0
	.align	4, 0x90
LBB10_1:                                ## =>This Inner Loop Header: Depth=1
	##DEBUG_VALUE: Count_NumPhysicalChs:this <- RDI
	##DEBUG_VALUE: Count_NumPhysicalChs:LogicalCh <- RSI
	##DEBUG_VALUE: Count_NumPhysicalChs:i <- 0
	.loc	16 449 30 prologue_end  ## /Users/nobuhiro/Documents/source/openframeworks/of_v0.9.0_osx_release/apps/myApps/Gusha_Entrance/src/Light.cpp:449:30
	cmpl	$-1, -8(%rsi,%rcx,4)
Ltmp457:
	.loc	16 449 6 is_stmt 0      ## /Users/nobuhiro/Documents/source/openframeworks/of_v0.9.0_osx_release/apps/myApps/Gusha_Entrance/src/Light.cpp:449:6
	je	LBB10_9
Ltmp458:
## BB#2:                                ##   in Loop: Header=BB10_1 Depth=1
	##DEBUG_VALUE: Count_NumPhysicalChs:this <- RDI
	##DEBUG_VALUE: Count_NumPhysicalChs:LogicalCh <- RSI
	##DEBUG_VALUE: Count_NumPhysicalChs:i <- 0
	.loc	16 448 2 is_stmt 1      ## /Users/nobuhiro/Documents/source/openframeworks/of_v0.9.0_osx_release/apps/myApps/Gusha_Entrance/src/Light.cpp:448:2
	incq	%rax
	.loc	16 449 30               ## /Users/nobuhiro/Documents/source/openframeworks/of_v0.9.0_osx_release/apps/myApps/Gusha_Entrance/src/Light.cpp:449:30
Ltmp459:
	cmpl	$-1, -4(%rsi,%rcx,4)
	je	LBB10_10
Ltmp460:
## BB#3:                                ##   in Loop: Header=BB10_1 Depth=1
	##DEBUG_VALUE: Count_NumPhysicalChs:this <- RDI
	##DEBUG_VALUE: Count_NumPhysicalChs:LogicalCh <- RSI
	##DEBUG_VALUE: Count_NumPhysicalChs:i <- 0
	.loc	16 448 2                ## /Users/nobuhiro/Documents/source/openframeworks/of_v0.9.0_osx_release/apps/myApps/Gusha_Entrance/src/Light.cpp:448:2
	incq	%rax
	.loc	16 449 30               ## /Users/nobuhiro/Documents/source/openframeworks/of_v0.9.0_osx_release/apps/myApps/Gusha_Entrance/src/Light.cpp:449:30
Ltmp461:
	cmpl	$-1, (%rsi,%rcx,4)
	je	LBB10_10
Ltmp462:
## BB#4:                                ##   in Loop: Header=BB10_1 Depth=1
	##DEBUG_VALUE: Count_NumPhysicalChs:this <- RDI
	##DEBUG_VALUE: Count_NumPhysicalChs:LogicalCh <- RSI
	##DEBUG_VALUE: Count_NumPhysicalChs:i <- 0
	.loc	16 448 2                ## /Users/nobuhiro/Documents/source/openframeworks/of_v0.9.0_osx_release/apps/myApps/Gusha_Entrance/src/Light.cpp:448:2
	incq	%rax
	.loc	16 449 30               ## /Users/nobuhiro/Documents/source/openframeworks/of_v0.9.0_osx_release/apps/myApps/Gusha_Entrance/src/Light.cpp:449:30
Ltmp463:
	cmpl	$-1, 4(%rsi,%rcx,4)
	je	LBB10_10
Ltmp464:
## BB#5:                                ##   in Loop: Header=BB10_1 Depth=1
	##DEBUG_VALUE: Count_NumPhysicalChs:this <- RDI
	##DEBUG_VALUE: Count_NumPhysicalChs:LogicalCh <- RSI
	##DEBUG_VALUE: Count_NumPhysicalChs:i <- 0
	.loc	16 448 2                ## /Users/nobuhiro/Documents/source/openframeworks/of_v0.9.0_osx_release/apps/myApps/Gusha_Entrance/src/Light.cpp:448:2
	incq	%rax
	.loc	16 449 30               ## /Users/nobuhiro/Documents/source/openframeworks/of_v0.9.0_osx_release/apps/myApps/Gusha_Entrance/src/Light.cpp:449:30
Ltmp465:
	cmpl	$-1, 8(%rsi,%rcx,4)
	je	LBB10_10
Ltmp466:
## BB#6:                                ##   in Loop: Header=BB10_1 Depth=1
	##DEBUG_VALUE: Count_NumPhysicalChs:this <- RDI
	##DEBUG_VALUE: Count_NumPhysicalChs:LogicalCh <- RSI
	##DEBUG_VALUE: Count_NumPhysicalChs:i <- 0
	.loc	16 448 2                ## /Users/nobuhiro/Documents/source/openframeworks/of_v0.9.0_osx_release/apps/myApps/Gusha_Entrance/src/Light.cpp:448:2
	incq	%rax
	.loc	16 448 15 is_stmt 0     ## /Users/nobuhiro/Documents/source/openframeworks/of_v0.9.0_osx_release/apps/myApps/Gusha_Entrance/src/Light.cpp:448:15
Ltmp467:
	movq	%rcx, %rdx
	leaq	5(%rcx), %rcx
	addq	$3, %rdx
	cmpq	$50, %rdx
	jl	LBB10_1
Ltmp468:
## BB#7:
	##DEBUG_VALUE: Count_NumPhysicalChs:this <- RDI
	##DEBUG_VALUE: Count_NumPhysicalChs:i <- 0
	.loc	16 451 5 is_stmt 1      ## /Users/nobuhiro/Documents/source/openframeworks/of_v0.9.0_osx_release/apps/myApps/Gusha_Entrance/src/Light.cpp:451:5
	cmpl	$50, %edx
	movl	%edx, %eax
	jne	LBB10_10
Ltmp469:
## BB#8:
	##DEBUG_VALUE: Count_NumPhysicalChs:this <- RDI
	##DEBUG_VALUE: Count_NumPhysicalChs:i <- 0
	.loc	16 452 3                ## /Users/nobuhiro/Documents/source/openframeworks/of_v0.9.0_osx_release/apps/myApps/Gusha_Entrance/src/Light.cpp:452:3
	leaq	L_.str18(%rip), %rdi
Ltmp470:
	leaq	L_.str19(%rip), %rsi
	movl	$452, %edx              ## imm = 0x1C4
	xorl	%eax, %eax
	callq	_printf
	movl	$1, %edi
	.loc	16 452 16 is_stmt 0     ## /Users/nobuhiro/Documents/source/openframeworks/of_v0.9.0_osx_release/apps/myApps/Gusha_Entrance/src/Light.cpp:452:16
	callq	_exit
Ltmp471:
LBB10_9:                                ## %..thread.loopexit_crit_edge
	##DEBUG_VALUE: Count_NumPhysicalChs:this <- RDI
	##DEBUG_VALUE: Count_NumPhysicalChs:i <- 0
	.loc	16 449 6 is_stmt 1      ## /Users/nobuhiro/Documents/source/openframeworks/of_v0.9.0_osx_release/apps/myApps/Gusha_Entrance/src/Light.cpp:449:6
	addq	$-2, %rcx
	movq	%rcx, %rax
Ltmp472:
LBB10_10:                               ## %.thread
	##DEBUG_VALUE: Count_NumPhysicalChs:this <- RDI
	##DEBUG_VALUE: Count_NumPhysicalChs:i <- 0
	.loc	16 455 2                ## /Users/nobuhiro/Documents/source/openframeworks/of_v0.9.0_osx_release/apps/myApps/Gusha_Entrance/src/Light.cpp:455:2
                                        ## kill: EAX<def> EAX<kill> RAX<kill>
	popq	%rbp
	retq
Ltmp473:
Lfunc_end10:
	.cfi_endproc

	.section	__TEXT,__literal16,16byte_literals
	.align	4
LCPI11_0:
	.quad	4607182418800017408     ## double 1.000000e+00
	.quad	4607182418800017408     ## double 1.000000e+00
	.section	__TEXT,__literal8,8byte_literals
	.align	3
LCPI11_1:
	.quad	4591870180066957722     ## double 0.10000000000000001
LCPI11_2:
	.quad	4594572339843380020     ## double 0.15000000000000002
LCPI11_3:
	.quad	4611686018427387904     ## double 2
LCPI11_4:
	.quad	4602678819172646912     ## double 0.5
LCPI11_5:
	.quad	4607182418800017408     ## double 1
LCPI11_6:
	.quad	4580268907426851324     ## double 0.016
LCPI11_7:
	.quad	4617315517961601024     ## double 5
	.section	__TEXT,__text,regular,pure_instructions
	.globl	__ZN5LIGHT20check_DesignFunc_LumEv
	.align	4, 0x90
__ZN5LIGHT20check_DesignFunc_LumEv:     ## @_ZN5LIGHT20check_DesignFunc_LumEv
Lfunc_begin11:
	.loc	16 202 0                ## /Users/nobuhiro/Documents/source/openframeworks/of_v0.9.0_osx_release/apps/myApps/Gusha_Entrance/src/Light.cpp:202:0
	.cfi_startproc
## BB#0:
	pushq	%rbp
Ltmp474:
	.cfi_def_cfa_offset 16
Ltmp475:
	.cfi_offset %rbp, -16
	movq	%rsp, %rbp
Ltmp476:
	.cfi_def_cfa_register %rbp
	pushq	%r15
	pushq	%r14
	pushq	%r13
	pushq	%r12
	pushq	%rbx
	subq	$728, %rsp              ## imm = 0x2D8
Ltmp477:
	.cfi_offset %rbx, -56
Ltmp478:
	.cfi_offset %r12, -48
Ltmp479:
	.cfi_offset %r13, -40
Ltmp480:
	.cfi_offset %r14, -32
Ltmp481:
	.cfi_offset %r15, -24
	##DEBUG_VALUE: check_DesignFunc_Lum:this <- RDI
	movq	___stack_chk_guard@GOTPCREL(%rip), %rax
	movq	(%rax), %rax
	movq	%rax, -48(%rbp)
	xorps	%xmm0, %xmm0
Ltmp482:
	##DEBUG_VALUE: sjRGBW:_w <- 1.000000e+00
	##DEBUG_VALUE: sjRGBW:_b <- 1.000000e+00
	##DEBUG_VALUE: sjRGBW:_g <- 1.000000e+00
	##DEBUG_VALUE: sjRGBW:_r <- 1.000000e+00
	##DEBUG_VALUE: sjRGBW:_w <- 1.000000e+00
	##DEBUG_VALUE: sjRGBW:_b <- 1.000000e+00
	##DEBUG_VALUE: sjRGBW:_g <- 1.000000e+00
	##DEBUG_VALUE: sjRGBW:_r <- 1.000000e+00
	##DEBUG_VALUE: sjRGBW:_w <- 0.000000e+00
	##DEBUG_VALUE: sjRGBW:_b <- 0.000000e+00
	##DEBUG_VALUE: sjRGBW:_g <- 0.000000e+00
	##DEBUG_VALUE: sjRGBW:_r <- 0.000000e+00
	##DEBUG_VALUE: sjRGBW:_w <- 0.000000e+00
	##DEBUG_VALUE: sjRGBW:_b <- 0.000000e+00
	##DEBUG_VALUE: sjRGBW:_g <- 0.000000e+00
	##DEBUG_VALUE: sjRGBW:_r <- 0.000000e+00
	##DEBUG_VALUE: check_DesignFunc_Lum:t_LastBeat <- 1.000000e+00
	##DEBUG_VALUE: check_DesignFunc_Lum:BeatInterval <- 5.000000e-01
	##DEBUG_VALUE: check_DesignFunc_Lum:d_LumLength_Flow <- 2.000000e+00
	##DEBUG_VALUE: check_DesignFunc_Lum:d_LumInterval_Flow <- 1.000000e+00
	##DEBUG_VALUE: check_DesignFunc_Lum:d_LumLength_Strobe <- 1.500000e-01
	##DEBUG_VALUE: check_DesignFunc_Lum:d_LumInterval_Strobe <- 1.000000e-01
	##DEBUG_VALUE: check_DesignFunc_Lum:NumFuncs_ToCheck <- 7
	.loc	17 31 11 prologue_end   ## /Users/nobuhiro/Documents/source/openframeworks/of_v0.9.0_osx_release/apps/myApps/Gusha_Entrance/src/L_common.h:31:11
	movaps	%xmm0, -576(%rbp)
	movaps	%xmm0, -592(%rbp)
Ltmp483:
	.loc	17 31 4 is_stmt 0       ## /Users/nobuhiro/Documents/source/openframeworks/of_v0.9.0_osx_release/apps/myApps/Gusha_Entrance/src/L_common.h:31:4
	movapd	LCPI11_0(%rip), %xmm0   ## xmm0 = [1.000000e+00,1.000000e+00]
	movapd	%xmm0, -624(%rbp)
	.loc	17 31 18                ## /Users/nobuhiro/Documents/source/openframeworks/of_v0.9.0_osx_release/apps/myApps/Gusha_Entrance/src/L_common.h:31:18
	movapd	%xmm0, -608(%rbp)
Ltmp484:
	##DEBUG_VALUE: i <- 0
	.loc	16 241 4 is_stmt 1      ## /Users/nobuhiro/Documents/source/openframeworks/of_v0.9.0_osx_release/apps/myApps/Gusha_Entrance/src/Light.cpp:241:4
	leaq	L_.str31(%rip), %r14
	leaq	-592(%rbp), %r15
	leaq	-624(%rbp), %r12
	xorl	%eax, %eax
	movq	%rax, -688(%rbp)        ## 8-byte Spill
Ltmp485:
	.align	4, 0x90
LBB11_1:                                ## =>This Loop Header: Depth=1
                                        ##     Child Loop BB11_2 Depth 2
	##DEBUG_VALUE: check_DesignFunc_Lum:this <- RDI
	##DEBUG_VALUE: check_DesignFunc_Lum:NumFuncs_ToCheck <- 7
	##DEBUG_VALUE: check_DesignFunc_Lum:d_LumInterval_Strobe <- 1.000000e-01
	##DEBUG_VALUE: check_DesignFunc_Lum:d_LumLength_Strobe <- 1.500000e-01
	##DEBUG_VALUE: check_DesignFunc_Lum:d_LumInterval_Flow <- 1.000000e+00
	##DEBUG_VALUE: check_DesignFunc_Lum:d_LumLength_Flow <- 2.000000e+00
	##DEBUG_VALUE: check_DesignFunc_Lum:BeatInterval <- 5.000000e-01
	##DEBUG_VALUE: check_DesignFunc_Lum:t_LastBeat <- 1.000000e+00
	##DEBUG_VALUE: i <- 0
	##DEBUG_VALUE: FileName <- [RBP+-664]
	xorl	%eax, %eax
	leaq	-560(%rbp), %rbx
Ltmp486:
	##DEBUG_VALUE: FileName <- [RBX+0]
	.loc	16 235 3                ## /Users/nobuhiro/Documents/source/openframeworks/of_v0.9.0_osx_release/apps/myApps/Gusha_Entrance/src/Light.cpp:235:3
	movq	%rbx, %rdi
Ltmp487:
	leaq	L_.str28(%rip), %rsi
	movq	-688(%rbp), %rdx        ## 8-byte Reload
                                        ## kill: EDX<def> EDX<kill> RDX<kill>
	callq	_sprintf
	.loc	16 236 14               ## /Users/nobuhiro/Documents/source/openframeworks/of_v0.9.0_osx_release/apps/myApps/Gusha_Entrance/src/Light.cpp:236:14
	movq	%rbx, %rdi
	leaq	L_.str29(%rip), %rsi
Ltmp488:
	##DEBUG_VALUE: FileName <- [RBP+-664]
	callq	_fopen
Ltmp489:
	##DEBUG_VALUE: fp <- RAX
	.loc	16 238 3                ## /Users/nobuhiro/Documents/source/openframeworks/of_v0.9.0_osx_release/apps/myApps/Gusha_Entrance/src/Light.cpp:238:3
	movq	%rax, -672(%rbp)        ## 8-byte Spill
	movl	$55, %esi
	movl	$1, %edx
	leaq	L_.str30(%rip), %rdi
	movq	%rax, %rcx
	movq	%rax, %rbx
Ltmp490:
	##DEBUG_VALUE: fp <- RBX
	callq	_fwrite
Ltmp491:
	##DEBUG_VALUE: now <- 0.000000e+00
	xorpd	%xmm1, %xmm1
	leaq	-656(%rbp), %rax
	movq	%rax, %r13
Ltmp492:
	.align	4, 0x90
LBB11_2:                                ## %._crit_edge.210
                                        ##   Parent Loop BB11_1 Depth=1
                                        ## =>  This Inner Loop Header: Depth=2
	##DEBUG_VALUE: check_DesignFunc_Lum:this <- RDI
	##DEBUG_VALUE: check_DesignFunc_Lum:NumFuncs_ToCheck <- 7
	##DEBUG_VALUE: check_DesignFunc_Lum:d_LumInterval_Strobe <- 1.000000e-01
	##DEBUG_VALUE: check_DesignFunc_Lum:d_LumLength_Strobe <- 1.500000e-01
	##DEBUG_VALUE: check_DesignFunc_Lum:d_LumInterval_Flow <- 1.000000e+00
	##DEBUG_VALUE: check_DesignFunc_Lum:d_LumLength_Flow <- 2.000000e+00
	##DEBUG_VALUE: check_DesignFunc_Lum:BeatInterval <- 5.000000e-01
	##DEBUG_VALUE: check_DesignFunc_Lum:t_LastBeat <- 1.000000e+00
	##DEBUG_VALUE: i <- 0
	##DEBUG_VALUE: FileName <- [RBP+-664]
	##DEBUG_VALUE: fp <- RBX
	##DEBUG_VALUE: now <- 0.000000e+00
	.loc	16 241 4                ## /Users/nobuhiro/Documents/source/openframeworks/of_v0.9.0_osx_release/apps/myApps/Gusha_Entrance/src/Light.cpp:241:4
	movsd	%xmm1, -664(%rbp)       ## 8-byte Spill
	movb	$1, %al
	movq	%rbx, %rdi
Ltmp493:
	##DEBUG_VALUE: fp <- [RBP+-672]
	##DEBUG_VALUE: fp <- RDI
	movq	%r14, %rsi
	movapd	%xmm1, %xmm0
	callq	_fprintf
Ltmp494:
	##DEBUG_VALUE: j <- 0
	.loc	16 245 17               ## /Users/nobuhiro/Documents/source/openframeworks/of_v0.9.0_osx_release/apps/myApps/Gusha_Entrance/src/Light.cpp:245:17
	movq	$0, (%rsp)
Ltmp495:
	##DEBUG_VALUE: check_DesignFunc_Lum:Col_H <- [R12+0]
	##DEBUG_VALUE: k <- 1
	##DEBUG_VALUE: check_DesignFunc_Lum:Col_L <- [R15+0]
	movl	$1, %esi
	movl	$0, %edx
	movl	$1, %ecx
	movq	%r13, %rdi
Ltmp496:
	movsd	-664(%rbp), %xmm0       ## 8-byte Reload
                                        ## xmm0 = mem[0],zero
	movsd	LCPI11_1(%rip), %xmm1   ## xmm1 = mem[0],zero
	movsd	LCPI11_2(%rip), %xmm2   ## xmm2 = mem[0],zero
	movsd	LCPI11_5(%rip), %xmm3   ## xmm3 = mem[0],zero
	movsd	LCPI11_3(%rip), %xmm4   ## xmm4 = mem[0],zero
	movapd	%xmm3, %xmm5
	movsd	LCPI11_4(%rip), %xmm6   ## xmm6 = mem[0],zero
	movapd	%xmm3, %xmm7
	movq	%r15, %r8
Ltmp497:
	##DEBUG_VALUE: check_DesignFunc_Lum:Col_L <- undef
	movq	%r12, %r9
	movq	-688(%rbp), %rbx        ## 8-byte Reload
	leaq	l__ZZN5LIGHT20check_DesignFunc_LumEvE9pFunc_Lum(%rip), %r15
	callq	*(%r15,%rbx,8)
	.loc	16 245 15 is_stmt 0     ## /Users/nobuhiro/Documents/source/openframeworks/of_v0.9.0_osx_release/apps/myApps/Gusha_Entrance/src/Light.cpp:245:15
	movsd	-632(%rbp), %xmm0       ## xmm0 = mem[0],zero
	movb	$1, %al
	movq	-672(%rbp), %r13        ## 8-byte Reload
Ltmp498:
	##DEBUG_VALUE: fp <- R13
	.loc	16 246 6 is_stmt 1      ## /Users/nobuhiro/Documents/source/openframeworks/of_v0.9.0_osx_release/apps/myApps/Gusha_Entrance/src/Light.cpp:246:6
	movq	%r13, %rdi
	movq	%r14, %rsi
	callq	_fprintf
	.loc	16 245 17               ## /Users/nobuhiro/Documents/source/openframeworks/of_v0.9.0_osx_release/apps/myApps/Gusha_Entrance/src/Light.cpp:245:17
	movq	(%r15,%rbx,8), %r14
	movq	$0, (%rsp)
	movl	$3, %esi
	movl	$0, %edx
	movl	$1, %ecx
	leaq	-656(%rbp), %rbx
	movq	%rbx, %rdi
	movsd	-664(%rbp), %xmm0       ## 8-byte Reload
                                        ## xmm0 = mem[0],zero
	movsd	LCPI11_1(%rip), %xmm1   ## xmm1 = mem[0],zero
	movsd	LCPI11_2(%rip), %xmm2   ## xmm2 = mem[0],zero
	movsd	LCPI11_5(%rip), %xmm3   ## xmm3 = mem[0],zero
	movsd	LCPI11_3(%rip), %xmm4   ## xmm4 = mem[0],zero
	movapd	%xmm3, %xmm5
	movsd	LCPI11_4(%rip), %xmm6   ## xmm6 = mem[0],zero
	movapd	%xmm3, %xmm7
	leaq	-592(%rbp), %r15
Ltmp499:
	##DEBUG_VALUE: check_DesignFunc_Lum:Col_L <- [R15+0]
	movq	%r15, %r8
	movq	%r12, %r9
	callq	*%r14
	.loc	16 245 15 is_stmt 0     ## /Users/nobuhiro/Documents/source/openframeworks/of_v0.9.0_osx_release/apps/myApps/Gusha_Entrance/src/Light.cpp:245:15
	movsd	-632(%rbp), %xmm0       ## xmm0 = mem[0],zero
	movb	$1, %al
	.loc	16 246 6 is_stmt 1      ## /Users/nobuhiro/Documents/source/openframeworks/of_v0.9.0_osx_release/apps/myApps/Gusha_Entrance/src/Light.cpp:246:6
	movq	%r13, %rdi
Ltmp500:
	.loc	16 241 4                ## /Users/nobuhiro/Documents/source/openframeworks/of_v0.9.0_osx_release/apps/myApps/Gusha_Entrance/src/Light.cpp:241:4
	leaq	L_.str31(%rip), %rsi
	.loc	16 246 6                ## /Users/nobuhiro/Documents/source/openframeworks/of_v0.9.0_osx_release/apps/myApps/Gusha_Entrance/src/Light.cpp:246:6
Ltmp501:
	callq	_fprintf
	.loc	16 245 17               ## /Users/nobuhiro/Documents/source/openframeworks/of_v0.9.0_osx_release/apps/myApps/Gusha_Entrance/src/Light.cpp:245:17
	movq	$0, (%rsp)
	movl	$3, %esi
	movl	$1, %edx
	movl	$1, %ecx
	movq	%rbx, %rdi
	movsd	-664(%rbp), %xmm0       ## 8-byte Reload
                                        ## xmm0 = mem[0],zero
	movsd	LCPI11_1(%rip), %xmm1   ## xmm1 = mem[0],zero
	movsd	LCPI11_2(%rip), %xmm2   ## xmm2 = mem[0],zero
	movsd	LCPI11_5(%rip), %xmm3   ## xmm3 = mem[0],zero
	movsd	LCPI11_3(%rip), %xmm4   ## xmm4 = mem[0],zero
	movapd	%xmm3, %xmm5
	movsd	LCPI11_4(%rip), %xmm6   ## xmm6 = mem[0],zero
	movapd	%xmm3, %xmm7
	movq	%r15, %r8
	movq	%r12, %r9
	callq	*%r14
	.loc	16 245 15 is_stmt 0     ## /Users/nobuhiro/Documents/source/openframeworks/of_v0.9.0_osx_release/apps/myApps/Gusha_Entrance/src/Light.cpp:245:15
	movsd	-632(%rbp), %xmm0       ## xmm0 = mem[0],zero
	movb	$1, %al
	.loc	16 246 6 is_stmt 1      ## /Users/nobuhiro/Documents/source/openframeworks/of_v0.9.0_osx_release/apps/myApps/Gusha_Entrance/src/Light.cpp:246:6
	movq	%r13, %rdi
Ltmp502:
	##DEBUG_VALUE: fp <- [RBP+-672]
	.loc	16 241 4                ## /Users/nobuhiro/Documents/source/openframeworks/of_v0.9.0_osx_release/apps/myApps/Gusha_Entrance/src/Light.cpp:241:4
	leaq	L_.str31(%rip), %rsi
	.loc	16 246 6                ## /Users/nobuhiro/Documents/source/openframeworks/of_v0.9.0_osx_release/apps/myApps/Gusha_Entrance/src/Light.cpp:246:6
Ltmp503:
	callq	_fprintf
	.loc	16 245 17               ## /Users/nobuhiro/Documents/source/openframeworks/of_v0.9.0_osx_release/apps/myApps/Gusha_Entrance/src/Light.cpp:245:17
	movq	$0, (%rsp)
	movl	$3, %esi
	movl	$2, %edx
	movl	$1, %ecx
	movq	%rbx, %rdi
	movsd	-664(%rbp), %xmm0       ## 8-byte Reload
                                        ## xmm0 = mem[0],zero
	movsd	LCPI11_1(%rip), %xmm1   ## xmm1 = mem[0],zero
	movsd	LCPI11_2(%rip), %xmm2   ## xmm2 = mem[0],zero
	movsd	LCPI11_5(%rip), %xmm3   ## xmm3 = mem[0],zero
	movsd	LCPI11_3(%rip), %xmm4   ## xmm4 = mem[0],zero
	movapd	%xmm3, %xmm5
	movsd	LCPI11_4(%rip), %xmm6   ## xmm6 = mem[0],zero
	movapd	%xmm3, %xmm7
	movq	%r15, %r8
	movq	%r15, %r13
Ltmp504:
	##DEBUG_VALUE: check_DesignFunc_Lum:Col_L <- [R13+0]
	movq	%r12, %r9
	callq	*%r14
	.loc	16 245 15 is_stmt 0     ## /Users/nobuhiro/Documents/source/openframeworks/of_v0.9.0_osx_release/apps/myApps/Gusha_Entrance/src/Light.cpp:245:15
	movsd	-632(%rbp), %xmm0       ## xmm0 = mem[0],zero
	movb	$1, %al
	movq	-672(%rbp), %r15        ## 8-byte Reload
Ltmp505:
	##DEBUG_VALUE: fp <- R15
	.loc	16 246 6 is_stmt 1      ## /Users/nobuhiro/Documents/source/openframeworks/of_v0.9.0_osx_release/apps/myApps/Gusha_Entrance/src/Light.cpp:246:6
	movq	%r15, %rdi
Ltmp506:
	.loc	16 241 4                ## /Users/nobuhiro/Documents/source/openframeworks/of_v0.9.0_osx_release/apps/myApps/Gusha_Entrance/src/Light.cpp:241:4
	leaq	L_.str31(%rip), %rsi
	.loc	16 246 6                ## /Users/nobuhiro/Documents/source/openframeworks/of_v0.9.0_osx_release/apps/myApps/Gusha_Entrance/src/Light.cpp:246:6
Ltmp507:
	callq	_fprintf
	.loc	16 245 17               ## /Users/nobuhiro/Documents/source/openframeworks/of_v0.9.0_osx_release/apps/myApps/Gusha_Entrance/src/Light.cpp:245:17
	movq	-688(%rbp), %rcx        ## 8-byte Reload
	leaq	l__ZZN5LIGHT20check_DesignFunc_LumEvE9pFunc_Lum(%rip), %rax
	movq	(%rax,%rcx,8), %r14
	movq	%r14, -680(%rbp)        ## 8-byte Spill
	movq	$0, (%rsp)
	movl	$5, %esi
	movl	$0, %edx
	movl	$1, %ecx
	movq	%rbx, %rdi
	movsd	-664(%rbp), %xmm0       ## 8-byte Reload
                                        ## xmm0 = mem[0],zero
	movsd	LCPI11_1(%rip), %xmm1   ## xmm1 = mem[0],zero
	movsd	LCPI11_2(%rip), %xmm2   ## xmm2 = mem[0],zero
	movsd	LCPI11_5(%rip), %xmm3   ## xmm3 = mem[0],zero
	movsd	LCPI11_3(%rip), %xmm4   ## xmm4 = mem[0],zero
	movapd	%xmm3, %xmm5
	movsd	LCPI11_4(%rip), %xmm6   ## xmm6 = mem[0],zero
	movapd	%xmm3, %xmm7
	movq	%r13, %r8
Ltmp508:
	##DEBUG_VALUE: check_DesignFunc_Lum:Col_L <- undef
	movq	%r12, %r9
	movq	%r12, %r13
Ltmp509:
	##DEBUG_VALUE: check_DesignFunc_Lum:Col_H <- [R13+0]
	callq	*%r14
	movq	%r14, %r12
	.loc	16 245 15 is_stmt 0     ## /Users/nobuhiro/Documents/source/openframeworks/of_v0.9.0_osx_release/apps/myApps/Gusha_Entrance/src/Light.cpp:245:15
	movsd	-632(%rbp), %xmm0       ## xmm0 = mem[0],zero
	movb	$1, %al
	.loc	16 246 6 is_stmt 1      ## /Users/nobuhiro/Documents/source/openframeworks/of_v0.9.0_osx_release/apps/myApps/Gusha_Entrance/src/Light.cpp:246:6
	movq	%r15, %rdi
	movq	%r15, %r14
Ltmp510:
	##DEBUG_VALUE: fp <- R14
	.loc	16 241 4                ## /Users/nobuhiro/Documents/source/openframeworks/of_v0.9.0_osx_release/apps/myApps/Gusha_Entrance/src/Light.cpp:241:4
	leaq	L_.str31(%rip), %rsi
	.loc	16 246 6                ## /Users/nobuhiro/Documents/source/openframeworks/of_v0.9.0_osx_release/apps/myApps/Gusha_Entrance/src/Light.cpp:246:6
Ltmp511:
	callq	_fprintf
	.loc	16 245 17               ## /Users/nobuhiro/Documents/source/openframeworks/of_v0.9.0_osx_release/apps/myApps/Gusha_Entrance/src/Light.cpp:245:17
	movq	$0, (%rsp)
	movl	$5, %esi
	movl	$1, %edx
	movl	$1, %ecx
	movq	%rbx, %rdi
	movq	%rbx, %r15
	movsd	-664(%rbp), %xmm0       ## 8-byte Reload
                                        ## xmm0 = mem[0],zero
	movsd	LCPI11_1(%rip), %xmm1   ## xmm1 = mem[0],zero
	movsd	LCPI11_2(%rip), %xmm2   ## xmm2 = mem[0],zero
	movsd	LCPI11_5(%rip), %xmm3   ## xmm3 = mem[0],zero
	movsd	LCPI11_3(%rip), %xmm4   ## xmm4 = mem[0],zero
	movapd	%xmm3, %xmm5
	movsd	LCPI11_4(%rip), %xmm6   ## xmm6 = mem[0],zero
	movapd	%xmm3, %xmm7
	leaq	-592(%rbp), %rbx
Ltmp512:
	##DEBUG_VALUE: check_DesignFunc_Lum:Col_L <- [RBX+0]
	movq	%rbx, %r8
	movq	%r13, %r9
	callq	*%r12
	.loc	16 245 15 is_stmt 0     ## /Users/nobuhiro/Documents/source/openframeworks/of_v0.9.0_osx_release/apps/myApps/Gusha_Entrance/src/Light.cpp:245:15
	movsd	-632(%rbp), %xmm0       ## xmm0 = mem[0],zero
	movb	$1, %al
	.loc	16 246 6 is_stmt 1      ## /Users/nobuhiro/Documents/source/openframeworks/of_v0.9.0_osx_release/apps/myApps/Gusha_Entrance/src/Light.cpp:246:6
	movq	%r14, %rdi
Ltmp513:
	##DEBUG_VALUE: fp <- [RBP+-672]
	.loc	16 241 4                ## /Users/nobuhiro/Documents/source/openframeworks/of_v0.9.0_osx_release/apps/myApps/Gusha_Entrance/src/Light.cpp:241:4
	leaq	L_.str31(%rip), %rsi
	.loc	16 246 6                ## /Users/nobuhiro/Documents/source/openframeworks/of_v0.9.0_osx_release/apps/myApps/Gusha_Entrance/src/Light.cpp:246:6
Ltmp514:
	callq	_fprintf
	.loc	16 245 17               ## /Users/nobuhiro/Documents/source/openframeworks/of_v0.9.0_osx_release/apps/myApps/Gusha_Entrance/src/Light.cpp:245:17
	movq	$0, (%rsp)
	movl	$5, %esi
	movl	$2, %edx
	movl	$1, %ecx
	movq	%r15, %rdi
	movq	%r15, %r12
	movsd	-664(%rbp), %xmm0       ## 8-byte Reload
                                        ## xmm0 = mem[0],zero
	movsd	LCPI11_1(%rip), %xmm1   ## xmm1 = mem[0],zero
	movsd	LCPI11_2(%rip), %xmm2   ## xmm2 = mem[0],zero
	movsd	LCPI11_5(%rip), %xmm3   ## xmm3 = mem[0],zero
	movsd	LCPI11_3(%rip), %xmm4   ## xmm4 = mem[0],zero
	movapd	%xmm3, %xmm5
	movsd	LCPI11_4(%rip), %xmm6   ## xmm6 = mem[0],zero
	movapd	%xmm3, %xmm7
	movq	%rbx, %r8
	movq	%rbx, %r15
Ltmp515:
	##DEBUG_VALUE: check_DesignFunc_Lum:Col_L <- [R15+0]
	movq	%r13, %r14
Ltmp516:
	##DEBUG_VALUE: check_DesignFunc_Lum:Col_H <- [R14+0]
	movq	%r14, %r9
	movq	-680(%rbp), %rbx        ## 8-byte Reload
	callq	*%rbx
	.loc	16 245 15 is_stmt 0     ## /Users/nobuhiro/Documents/source/openframeworks/of_v0.9.0_osx_release/apps/myApps/Gusha_Entrance/src/Light.cpp:245:15
	movsd	-632(%rbp), %xmm0       ## xmm0 = mem[0],zero
	movb	$1, %al
	movq	-672(%rbp), %r13        ## 8-byte Reload
Ltmp517:
	##DEBUG_VALUE: fp <- R13
	.loc	16 246 6 is_stmt 1      ## /Users/nobuhiro/Documents/source/openframeworks/of_v0.9.0_osx_release/apps/myApps/Gusha_Entrance/src/Light.cpp:246:6
	movq	%r13, %rdi
Ltmp518:
	.loc	16 241 4                ## /Users/nobuhiro/Documents/source/openframeworks/of_v0.9.0_osx_release/apps/myApps/Gusha_Entrance/src/Light.cpp:241:4
	leaq	L_.str31(%rip), %rsi
	.loc	16 246 6                ## /Users/nobuhiro/Documents/source/openframeworks/of_v0.9.0_osx_release/apps/myApps/Gusha_Entrance/src/Light.cpp:246:6
Ltmp519:
	callq	_fprintf
	.loc	16 245 17               ## /Users/nobuhiro/Documents/source/openframeworks/of_v0.9.0_osx_release/apps/myApps/Gusha_Entrance/src/Light.cpp:245:17
	movq	$0, (%rsp)
	movl	$5, %esi
	movl	$3, %edx
	movl	$1, %ecx
	movq	%r12, %rdi
	movsd	-664(%rbp), %xmm0       ## 8-byte Reload
                                        ## xmm0 = mem[0],zero
	movsd	LCPI11_1(%rip), %xmm1   ## xmm1 = mem[0],zero
	movsd	LCPI11_2(%rip), %xmm2   ## xmm2 = mem[0],zero
	movsd	LCPI11_5(%rip), %xmm3   ## xmm3 = mem[0],zero
	movsd	LCPI11_3(%rip), %xmm4   ## xmm4 = mem[0],zero
	movapd	%xmm3, %xmm5
	movsd	LCPI11_4(%rip), %xmm6   ## xmm6 = mem[0],zero
	movapd	%xmm3, %xmm7
	movq	%r15, %r8
	movq	%r14, %r9
	callq	*%rbx
	.loc	16 245 15 is_stmt 0     ## /Users/nobuhiro/Documents/source/openframeworks/of_v0.9.0_osx_release/apps/myApps/Gusha_Entrance/src/Light.cpp:245:15
	movsd	-632(%rbp), %xmm0       ## xmm0 = mem[0],zero
	movb	$1, %al
	.loc	16 246 6 is_stmt 1      ## /Users/nobuhiro/Documents/source/openframeworks/of_v0.9.0_osx_release/apps/myApps/Gusha_Entrance/src/Light.cpp:246:6
	movq	%r13, %rdi
	movq	%r13, %rbx
Ltmp520:
	##DEBUG_VALUE: fp <- RBX
	.loc	16 241 4                ## /Users/nobuhiro/Documents/source/openframeworks/of_v0.9.0_osx_release/apps/myApps/Gusha_Entrance/src/Light.cpp:241:4
	leaq	L_.str31(%rip), %rsi
	.loc	16 246 6                ## /Users/nobuhiro/Documents/source/openframeworks/of_v0.9.0_osx_release/apps/myApps/Gusha_Entrance/src/Light.cpp:246:6
Ltmp521:
	callq	_fprintf
	.loc	16 245 17               ## /Users/nobuhiro/Documents/source/openframeworks/of_v0.9.0_osx_release/apps/myApps/Gusha_Entrance/src/Light.cpp:245:17
	movq	$0, (%rsp)
	movl	$5, %esi
	movl	$4, %edx
	movl	$1, %ecx
	movq	%r12, %rdi
	movq	%r12, %r13
	movsd	-664(%rbp), %xmm0       ## 8-byte Reload
                                        ## xmm0 = mem[0],zero
	movsd	LCPI11_1(%rip), %xmm1   ## xmm1 = mem[0],zero
	movsd	LCPI11_2(%rip), %xmm2   ## xmm2 = mem[0],zero
	movsd	LCPI11_5(%rip), %xmm3   ## xmm3 = mem[0],zero
	movsd	LCPI11_3(%rip), %xmm4   ## xmm4 = mem[0],zero
	movapd	%xmm3, %xmm5
	movsd	LCPI11_4(%rip), %xmm6   ## xmm6 = mem[0],zero
	movapd	%xmm3, %xmm7
	movq	%r15, %r8
	movq	%r14, %r9
	movq	%r14, %r12
Ltmp522:
	##DEBUG_VALUE: check_DesignFunc_Lum:Col_H <- [R12+0]
	callq	*-680(%rbp)             ## 8-byte Folded Reload
Ltmp523:
	.loc	16 241 4                ## /Users/nobuhiro/Documents/source/openframeworks/of_v0.9.0_osx_release/apps/myApps/Gusha_Entrance/src/Light.cpp:241:4
	leaq	L_.str31(%rip), %r14
	.loc	16 245 15               ## /Users/nobuhiro/Documents/source/openframeworks/of_v0.9.0_osx_release/apps/myApps/Gusha_Entrance/src/Light.cpp:245:15
Ltmp524:
	movsd	-632(%rbp), %xmm0       ## xmm0 = mem[0],zero
	movb	$1, %al
	.loc	16 246 6                ## /Users/nobuhiro/Documents/source/openframeworks/of_v0.9.0_osx_release/apps/myApps/Gusha_Entrance/src/Light.cpp:246:6
	movq	%rbx, %rdi
	movq	%r14, %rsi
	callq	_fprintf
	movl	$10, %edi
	movq	%rbx, %rsi
Ltmp525:
	##DEBUG_VALUE: fp <- RSI
                                        ## kill: RBX<def> RSI<kill>
Ltmp526:
	##DEBUG_VALUE: fp <- RBX
	.loc	16 249 4                ## /Users/nobuhiro/Documents/source/openframeworks/of_v0.9.0_osx_release/apps/myApps/Gusha_Entrance/src/Light.cpp:249:4
	callq	_fputc
	movsd	-664(%rbp), %xmm1       ## 8-byte Reload
                                        ## xmm1 = mem[0],zero
Ltmp527:
	.loc	16 240 38               ## /Users/nobuhiro/Documents/source/openframeworks/of_v0.9.0_osx_release/apps/myApps/Gusha_Entrance/src/Light.cpp:240:38
	addsd	LCPI11_6(%rip), %xmm1
Ltmp528:
	##DEBUG_VALUE: now <- XMM1
	movsd	LCPI11_7(%rip), %xmm0   ## xmm0 = mem[0],zero
	.loc	16 240 27 is_stmt 0     ## /Users/nobuhiro/Documents/source/openframeworks/of_v0.9.0_osx_release/apps/myApps/Gusha_Entrance/src/Light.cpp:240:27
	ucomisd	%xmm1, %xmm0
Ltmp529:
	.loc	16 240 3                ## /Users/nobuhiro/Documents/source/openframeworks/of_v0.9.0_osx_release/apps/myApps/Gusha_Entrance/src/Light.cpp:240:3
	ja	LBB11_2
Ltmp530:
## BB#3:                                ##   in Loop: Header=BB11_1 Depth=1
	##DEBUG_VALUE: check_DesignFunc_Lum:this <- RDI
	##DEBUG_VALUE: check_DesignFunc_Lum:NumFuncs_ToCheck <- 7
	##DEBUG_VALUE: check_DesignFunc_Lum:d_LumInterval_Strobe <- 1.000000e-01
	##DEBUG_VALUE: check_DesignFunc_Lum:d_LumLength_Strobe <- 1.500000e-01
	##DEBUG_VALUE: check_DesignFunc_Lum:d_LumInterval_Flow <- 1.000000e+00
	##DEBUG_VALUE: check_DesignFunc_Lum:d_LumLength_Flow <- 2.000000e+00
	##DEBUG_VALUE: check_DesignFunc_Lum:BeatInterval <- 5.000000e-01
	##DEBUG_VALUE: check_DesignFunc_Lum:t_LastBeat <- 1.000000e+00
	##DEBUG_VALUE: i <- 0
	##DEBUG_VALUE: FileName <- [RBP+-664]
	##DEBUG_VALUE: fp <- RBX
	##DEBUG_VALUE: check_DesignFunc_Lum:Col_L <- [R15+0]
	##DEBUG_VALUE: check_DesignFunc_Lum:Col_H <- [R12+0]
	.loc	16 252 3 is_stmt 1      ## /Users/nobuhiro/Documents/source/openframeworks/of_v0.9.0_osx_release/apps/myApps/Gusha_Entrance/src/Light.cpp:252:3
	movq	%rbx, %rdi
Ltmp531:
	callq	_fclose
	movq	-688(%rbp), %rax        ## 8-byte Reload
Ltmp532:
	.loc	16 233 2                ## /Users/nobuhiro/Documents/source/openframeworks/of_v0.9.0_osx_release/apps/myApps/Gusha_Entrance/src/Light.cpp:233:2
	incq	%rax
	movq	%rax, -688(%rbp)        ## 8-byte Spill
	cmpq	$7, %rax
	jne	LBB11_1
Ltmp533:
## BB#4:
	##DEBUG_VALUE: check_DesignFunc_Lum:this <- RDI
	##DEBUG_VALUE: check_DesignFunc_Lum:NumFuncs_ToCheck <- 7
	##DEBUG_VALUE: check_DesignFunc_Lum:d_LumInterval_Strobe <- 1.000000e-01
	##DEBUG_VALUE: check_DesignFunc_Lum:d_LumLength_Strobe <- 1.500000e-01
	##DEBUG_VALUE: check_DesignFunc_Lum:d_LumInterval_Flow <- 1.000000e+00
	##DEBUG_VALUE: check_DesignFunc_Lum:d_LumLength_Flow <- 2.000000e+00
	##DEBUG_VALUE: check_DesignFunc_Lum:BeatInterval <- 5.000000e-01
	##DEBUG_VALUE: check_DesignFunc_Lum:t_LastBeat <- 1.000000e+00
	movq	___stack_chk_guard@GOTPCREL(%rip), %rax
	movq	(%rax), %rax
	cmpq	-48(%rbp), %rax
	jne	LBB11_6
Ltmp534:
## BB#5:
	.loc	16 254 1                ## /Users/nobuhiro/Documents/source/openframeworks/of_v0.9.0_osx_release/apps/myApps/Gusha_Entrance/src/Light.cpp:254:1
	addq	$728, %rsp              ## imm = 0x2D8
Ltmp535:
	##DEBUG_VALUE: check_DesignFunc_Lum:this <- RDI
	##DEBUG_VALUE: check_DesignFunc_Lum:NumFuncs_ToCheck <- 7
	##DEBUG_VALUE: check_DesignFunc_Lum:d_LumInterval_Strobe <- 1.000000e-01
	##DEBUG_VALUE: check_DesignFunc_Lum:d_LumLength_Strobe <- 1.500000e-01
	##DEBUG_VALUE: check_DesignFunc_Lum:d_LumInterval_Flow <- 1.000000e+00
	##DEBUG_VALUE: check_DesignFunc_Lum:d_LumLength_Flow <- 2.000000e+00
	##DEBUG_VALUE: check_DesignFunc_Lum:BeatInterval <- 5.000000e-01
	##DEBUG_VALUE: check_DesignFunc_Lum:t_LastBeat <- 1.000000e+00
	popq	%rbx
	popq	%r12
	popq	%r13
	popq	%r14
	popq	%r15
	popq	%rbp
	retq
Ltmp536:
LBB11_6:
	##DEBUG_VALUE: check_DesignFunc_Lum:this <- RDI
	##DEBUG_VALUE: check_DesignFunc_Lum:NumFuncs_ToCheck <- 7
	##DEBUG_VALUE: check_DesignFunc_Lum:d_LumInterval_Strobe <- 1.000000e-01
	##DEBUG_VALUE: check_DesignFunc_Lum:d_LumLength_Strobe <- 1.500000e-01
	##DEBUG_VALUE: check_DesignFunc_Lum:d_LumInterval_Flow <- 1.000000e+00
	##DEBUG_VALUE: check_DesignFunc_Lum:d_LumLength_Flow <- 2.000000e+00
	##DEBUG_VALUE: check_DesignFunc_Lum:BeatInterval <- 5.000000e-01
	##DEBUG_VALUE: check_DesignFunc_Lum:t_LastBeat <- 1.000000e+00
	callq	___stack_chk_fail
Lfunc_end11:
	.cfi_endproc

	.section	__TEXT,__literal8,8byte_literals
	.align	3
LCPI12_0:
	.quad	4611686018427387904     ## double 2
LCPI12_1:
	.quad	4607182418800017408     ## double 1
LCPI12_2:
	.quad	4580268907426851324     ## double 0.016
LCPI12_3:
	.quad	4618441417868443648     ## double 6
	.section	__TEXT,__text,regular,pure_instructions
	.globl	__ZN5LIGHT20check_DesignFunc_PosEv
	.align	4, 0x90
__ZN5LIGHT20check_DesignFunc_PosEv:     ## @_ZN5LIGHT20check_DesignFunc_PosEv
Lfunc_begin12:
	.loc	16 259 0                ## /Users/nobuhiro/Documents/source/openframeworks/of_v0.9.0_osx_release/apps/myApps/Gusha_Entrance/src/Light.cpp:259:0
	.cfi_startproc
## BB#0:
	pushq	%rbp
Ltmp537:
	.cfi_def_cfa_offset 16
Ltmp538:
	.cfi_offset %rbp, -16
	movq	%rsp, %rbp
Ltmp539:
	.cfi_def_cfa_register %rbp
	pushq	%r15
	pushq	%r14
	pushq	%r13
	pushq	%r12
	pushq	%rbx
	subq	$568, %rsp              ## imm = 0x238
Ltmp540:
	.cfi_offset %rbx, -56
Ltmp541:
	.cfi_offset %r12, -48
Ltmp542:
	.cfi_offset %r13, -40
Ltmp543:
	.cfi_offset %r14, -32
Ltmp544:
	.cfi_offset %r15, -24
	##DEBUG_VALUE: check_DesignFunc_Pos:this <- RDI
	movq	___stack_chk_guard@GOTPCREL(%rip), %rax
	movq	(%rax), %rax
	movq	%rax, -48(%rbp)
Ltmp545:
	##DEBUG_VALUE: i <- 0
	##DEBUG_VALUE: check_DesignFunc_Pos:d_Interval <- 2.000000e+00
	##DEBUG_VALUE: check_DesignFunc_Pos:NumFuncs_ToCheck <- 10
	.loc	16 297 20 prologue_end  ## /Users/nobuhiro/Documents/source/openframeworks/of_v0.9.0_osx_release/apps/myApps/Gusha_Entrance/src/Light.cpp:297:20
	leaq	l__ZZN5LIGHT20check_DesignFunc_PosEvE9pFunc_Pos(%rip), %r13
	.loc	16 298 6                ## /Users/nobuhiro/Documents/source/openframeworks/of_v0.9.0_osx_release/apps/myApps/Gusha_Entrance/src/Light.cpp:298:6
	leaq	L_.str34(%rip), %r14
	xorl	%r15d, %r15d
Ltmp546:
	.align	4, 0x90
LBB12_1:                                ## =>This Loop Header: Depth=1
                                        ##     Child Loop BB12_2 Depth 2
	##DEBUG_VALUE: check_DesignFunc_Pos:this <- RDI
	##DEBUG_VALUE: check_DesignFunc_Pos:NumFuncs_ToCheck <- 10
	##DEBUG_VALUE: check_DesignFunc_Pos:d_Interval <- 2.000000e+00
	##DEBUG_VALUE: i <- 0
	##DEBUG_VALUE: FileName <- [RBP+-568]
	xorl	%eax, %eax
	leaq	-560(%rbp), %rbx
Ltmp547:
	##DEBUG_VALUE: FileName <- [RBX+0]
	.loc	16 287 3                ## /Users/nobuhiro/Documents/source/openframeworks/of_v0.9.0_osx_release/apps/myApps/Gusha_Entrance/src/Light.cpp:287:3
	movq	%rbx, %rdi
Ltmp548:
	leaq	L_.str32(%rip), %rsi
	movl	%r15d, %edx
	callq	_sprintf
	.loc	16 288 14               ## /Users/nobuhiro/Documents/source/openframeworks/of_v0.9.0_osx_release/apps/myApps/Gusha_Entrance/src/Light.cpp:288:14
	movq	%rbx, %rdi
	leaq	L_.str29(%rip), %rsi
Ltmp549:
	##DEBUG_VALUE: FileName <- [RBP+-568]
	callq	_fopen
	movq	%rax, %r12
Ltmp550:
	##DEBUG_VALUE: fp <- R12
	movl	$190, %esi
	movl	$1, %edx
	.loc	16 290 3                ## /Users/nobuhiro/Documents/source/openframeworks/of_v0.9.0_osx_release/apps/myApps/Gusha_Entrance/src/Light.cpp:290:3
	leaq	L_.str33(%rip), %rdi
	movq	%r12, %rcx
	callq	_fwrite
Ltmp551:
	##DEBUG_VALUE: now <- 0.000000e+00
	xorpd	%xmm1, %xmm1
Ltmp552:
	.align	4, 0x90
LBB12_2:                                ## %._crit_edge.210
                                        ##   Parent Loop BB12_1 Depth=1
                                        ## =>  This Inner Loop Header: Depth=2
	##DEBUG_VALUE: check_DesignFunc_Pos:this <- RDI
	##DEBUG_VALUE: check_DesignFunc_Pos:NumFuncs_ToCheck <- 10
	##DEBUG_VALUE: check_DesignFunc_Pos:d_Interval <- 2.000000e+00
	##DEBUG_VALUE: i <- 0
	##DEBUG_VALUE: FileName <- [RBP+-568]
	##DEBUG_VALUE: fp <- R12
	##DEBUG_VALUE: now <- 0.000000e+00
	.loc	16 293 4                ## /Users/nobuhiro/Documents/source/openframeworks/of_v0.9.0_osx_release/apps/myApps/Gusha_Entrance/src/Light.cpp:293:4
	movsd	%xmm1, -568(%rbp)       ## 8-byte Spill
	movb	$1, %al
	movq	%r12, %rdi
Ltmp553:
	leaq	L_.str31(%rip), %rsi
	movapd	%xmm1, %xmm0
	callq	_fprintf
Ltmp554:
	##DEBUG_VALUE: j <- 0
	movl	$1, %edi
	xorl	%esi, %esi
	xorl	%edx, %edx
	.loc	16 297 20               ## /Users/nobuhiro/Documents/source/openframeworks/of_v0.9.0_osx_release/apps/myApps/Gusha_Entrance/src/Light.cpp:297:20
Ltmp555:
	movsd	-568(%rbp), %xmm0       ## 8-byte Reload
                                        ## xmm0 = mem[0],zero
	movsd	LCPI12_0(%rip), %xmm1   ## xmm1 = mem[0],zero
	movsd	LCPI12_1(%rip), %xmm2   ## xmm2 = mem[0],zero
	callq	*(%r13,%r15,8)
	movb	$2, %al
	.loc	16 298 6                ## /Users/nobuhiro/Documents/source/openframeworks/of_v0.9.0_osx_release/apps/myApps/Gusha_Entrance/src/Light.cpp:298:6
	movq	%r12, %rdi
	movq	%r14, %rsi
	callq	_fprintf
Ltmp556:
	##DEBUG_VALUE: k <- 1
	.loc	16 297 20               ## /Users/nobuhiro/Documents/source/openframeworks/of_v0.9.0_osx_release/apps/myApps/Gusha_Entrance/src/Light.cpp:297:20
	movq	(%r13,%r15,8), %rbx
	movl	$3, %edi
	xorl	%esi, %esi
	xorl	%edx, %edx
	movsd	-568(%rbp), %xmm0       ## 8-byte Reload
                                        ## xmm0 = mem[0],zero
	movsd	LCPI12_0(%rip), %xmm1   ## xmm1 = mem[0],zero
	movsd	LCPI12_1(%rip), %xmm2   ## xmm2 = mem[0],zero
	callq	*%rbx
	movb	$2, %al
	.loc	16 298 6                ## /Users/nobuhiro/Documents/source/openframeworks/of_v0.9.0_osx_release/apps/myApps/Gusha_Entrance/src/Light.cpp:298:6
	movq	%r12, %rdi
	movq	%r14, %rsi
	callq	_fprintf
	movl	$3, %edi
	movl	$1, %esi
	xorl	%edx, %edx
	.loc	16 297 20               ## /Users/nobuhiro/Documents/source/openframeworks/of_v0.9.0_osx_release/apps/myApps/Gusha_Entrance/src/Light.cpp:297:20
	movsd	-568(%rbp), %xmm0       ## 8-byte Reload
                                        ## xmm0 = mem[0],zero
	movsd	LCPI12_0(%rip), %xmm1   ## xmm1 = mem[0],zero
	movsd	LCPI12_1(%rip), %xmm2   ## xmm2 = mem[0],zero
	callq	*%rbx
	movb	$2, %al
	.loc	16 298 6                ## /Users/nobuhiro/Documents/source/openframeworks/of_v0.9.0_osx_release/apps/myApps/Gusha_Entrance/src/Light.cpp:298:6
	movq	%r12, %rdi
	movq	%r14, %rsi
	callq	_fprintf
	movl	$3, %edi
	movl	$2, %esi
	xorl	%edx, %edx
	.loc	16 297 20               ## /Users/nobuhiro/Documents/source/openframeworks/of_v0.9.0_osx_release/apps/myApps/Gusha_Entrance/src/Light.cpp:297:20
	movsd	-568(%rbp), %xmm0       ## 8-byte Reload
                                        ## xmm0 = mem[0],zero
	movsd	LCPI12_0(%rip), %xmm1   ## xmm1 = mem[0],zero
	movsd	LCPI12_1(%rip), %xmm2   ## xmm2 = mem[0],zero
	callq	*%rbx
	movb	$2, %al
	.loc	16 298 6                ## /Users/nobuhiro/Documents/source/openframeworks/of_v0.9.0_osx_release/apps/myApps/Gusha_Entrance/src/Light.cpp:298:6
	movq	%r12, %rdi
	movq	%r14, %rsi
	callq	_fprintf
	.loc	16 297 20               ## /Users/nobuhiro/Documents/source/openframeworks/of_v0.9.0_osx_release/apps/myApps/Gusha_Entrance/src/Light.cpp:297:20
	movq	(%r13,%r15,8), %rbx
	movl	$5, %edi
	xorl	%esi, %esi
	xorl	%edx, %edx
	movsd	-568(%rbp), %xmm0       ## 8-byte Reload
                                        ## xmm0 = mem[0],zero
	movsd	LCPI12_0(%rip), %xmm1   ## xmm1 = mem[0],zero
	movsd	LCPI12_1(%rip), %xmm2   ## xmm2 = mem[0],zero
	callq	*%rbx
	movb	$2, %al
	.loc	16 298 6                ## /Users/nobuhiro/Documents/source/openframeworks/of_v0.9.0_osx_release/apps/myApps/Gusha_Entrance/src/Light.cpp:298:6
	movq	%r12, %rdi
	movq	%r14, %rsi
	callq	_fprintf
	movl	$5, %edi
	movl	$1, %esi
	xorl	%edx, %edx
	.loc	16 297 20               ## /Users/nobuhiro/Documents/source/openframeworks/of_v0.9.0_osx_release/apps/myApps/Gusha_Entrance/src/Light.cpp:297:20
	movsd	-568(%rbp), %xmm0       ## 8-byte Reload
                                        ## xmm0 = mem[0],zero
	movsd	LCPI12_0(%rip), %xmm1   ## xmm1 = mem[0],zero
	movsd	LCPI12_1(%rip), %xmm2   ## xmm2 = mem[0],zero
	callq	*%rbx
	movb	$2, %al
	.loc	16 298 6                ## /Users/nobuhiro/Documents/source/openframeworks/of_v0.9.0_osx_release/apps/myApps/Gusha_Entrance/src/Light.cpp:298:6
	movq	%r12, %rdi
	movq	%r14, %rsi
	callq	_fprintf
	movl	$5, %edi
	movl	$2, %esi
	xorl	%edx, %edx
	.loc	16 297 20               ## /Users/nobuhiro/Documents/source/openframeworks/of_v0.9.0_osx_release/apps/myApps/Gusha_Entrance/src/Light.cpp:297:20
	movsd	-568(%rbp), %xmm0       ## 8-byte Reload
                                        ## xmm0 = mem[0],zero
	movsd	LCPI12_0(%rip), %xmm1   ## xmm1 = mem[0],zero
	movsd	LCPI12_1(%rip), %xmm2   ## xmm2 = mem[0],zero
	callq	*%rbx
	movb	$2, %al
	.loc	16 298 6                ## /Users/nobuhiro/Documents/source/openframeworks/of_v0.9.0_osx_release/apps/myApps/Gusha_Entrance/src/Light.cpp:298:6
	movq	%r12, %rdi
	movq	%r14, %rsi
	callq	_fprintf
	movl	$5, %edi
	movl	$3, %esi
	xorl	%edx, %edx
	.loc	16 297 20               ## /Users/nobuhiro/Documents/source/openframeworks/of_v0.9.0_osx_release/apps/myApps/Gusha_Entrance/src/Light.cpp:297:20
	movsd	-568(%rbp), %xmm0       ## 8-byte Reload
                                        ## xmm0 = mem[0],zero
	movsd	LCPI12_0(%rip), %xmm1   ## xmm1 = mem[0],zero
	movsd	LCPI12_1(%rip), %xmm2   ## xmm2 = mem[0],zero
	callq	*%rbx
	movb	$2, %al
	.loc	16 298 6                ## /Users/nobuhiro/Documents/source/openframeworks/of_v0.9.0_osx_release/apps/myApps/Gusha_Entrance/src/Light.cpp:298:6
	movq	%r12, %rdi
	movq	%r14, %rsi
	callq	_fprintf
	movl	$5, %edi
	movl	$4, %esi
	xorl	%edx, %edx
	.loc	16 297 20               ## /Users/nobuhiro/Documents/source/openframeworks/of_v0.9.0_osx_release/apps/myApps/Gusha_Entrance/src/Light.cpp:297:20
	movsd	-568(%rbp), %xmm0       ## 8-byte Reload
                                        ## xmm0 = mem[0],zero
	movsd	LCPI12_0(%rip), %xmm1   ## xmm1 = mem[0],zero
	movsd	LCPI12_1(%rip), %xmm2   ## xmm2 = mem[0],zero
	callq	*%rbx
	movb	$2, %al
	.loc	16 298 6                ## /Users/nobuhiro/Documents/source/openframeworks/of_v0.9.0_osx_release/apps/myApps/Gusha_Entrance/src/Light.cpp:298:6
	movq	%r12, %rdi
	movq	%r14, %rsi
	callq	_fprintf
	movl	$10, %edi
Ltmp557:
	.loc	16 301 4                ## /Users/nobuhiro/Documents/source/openframeworks/of_v0.9.0_osx_release/apps/myApps/Gusha_Entrance/src/Light.cpp:301:4
	movq	%r12, %rsi
	callq	_fputc
	movsd	-568(%rbp), %xmm1       ## 8-byte Reload
                                        ## xmm1 = mem[0],zero
Ltmp558:
	.loc	16 292 38               ## /Users/nobuhiro/Documents/source/openframeworks/of_v0.9.0_osx_release/apps/myApps/Gusha_Entrance/src/Light.cpp:292:38
	addsd	LCPI12_2(%rip), %xmm1
Ltmp559:
	##DEBUG_VALUE: now <- XMM1
	movsd	LCPI12_3(%rip), %xmm0   ## xmm0 = mem[0],zero
	.loc	16 292 27 is_stmt 0     ## /Users/nobuhiro/Documents/source/openframeworks/of_v0.9.0_osx_release/apps/myApps/Gusha_Entrance/src/Light.cpp:292:27
	ucomisd	%xmm1, %xmm0
Ltmp560:
	.loc	16 292 3                ## /Users/nobuhiro/Documents/source/openframeworks/of_v0.9.0_osx_release/apps/myApps/Gusha_Entrance/src/Light.cpp:292:3
	ja	LBB12_2
Ltmp561:
## BB#3:                                ##   in Loop: Header=BB12_1 Depth=1
	##DEBUG_VALUE: check_DesignFunc_Pos:this <- RDI
	##DEBUG_VALUE: check_DesignFunc_Pos:NumFuncs_ToCheck <- 10
	##DEBUG_VALUE: check_DesignFunc_Pos:d_Interval <- 2.000000e+00
	##DEBUG_VALUE: i <- 0
	##DEBUG_VALUE: FileName <- [RBP+-568]
	##DEBUG_VALUE: fp <- R12
	.loc	16 304 3 is_stmt 1      ## /Users/nobuhiro/Documents/source/openframeworks/of_v0.9.0_osx_release/apps/myApps/Gusha_Entrance/src/Light.cpp:304:3
	movq	%r12, %rdi
Ltmp562:
	callq	_fclose
Ltmp563:
	.loc	16 285 2                ## /Users/nobuhiro/Documents/source/openframeworks/of_v0.9.0_osx_release/apps/myApps/Gusha_Entrance/src/Light.cpp:285:2
	incq	%r15
	cmpq	$10, %r15
	jne	LBB12_1
Ltmp564:
## BB#4:
	##DEBUG_VALUE: check_DesignFunc_Pos:this <- RDI
	##DEBUG_VALUE: check_DesignFunc_Pos:NumFuncs_ToCheck <- 10
	##DEBUG_VALUE: check_DesignFunc_Pos:d_Interval <- 2.000000e+00
	movq	___stack_chk_guard@GOTPCREL(%rip), %rax
	movq	(%rax), %rax
	cmpq	-48(%rbp), %rax
	jne	LBB12_6
Ltmp565:
## BB#5:
	.loc	16 306 1                ## /Users/nobuhiro/Documents/source/openframeworks/of_v0.9.0_osx_release/apps/myApps/Gusha_Entrance/src/Light.cpp:306:1
	addq	$568, %rsp              ## imm = 0x238
Ltmp566:
	##DEBUG_VALUE: check_DesignFunc_Pos:this <- RDI
	##DEBUG_VALUE: check_DesignFunc_Pos:NumFuncs_ToCheck <- 10
	##DEBUG_VALUE: check_DesignFunc_Pos:d_Interval <- 2.000000e+00
	popq	%rbx
	popq	%r12
	popq	%r13
	popq	%r14
	popq	%r15
	popq	%rbp
	retq
Ltmp567:
LBB12_6:
	##DEBUG_VALUE: check_DesignFunc_Pos:this <- RDI
	##DEBUG_VALUE: check_DesignFunc_Pos:NumFuncs_ToCheck <- 10
	##DEBUG_VALUE: check_DesignFunc_Pos:d_Interval <- 2.000000e+00
	callq	___stack_chk_fail
Lfunc_end12:
	.cfi_endproc

	.globl	__ZN5LIGHT17check_DesignTableEv
	.align	4, 0x90
__ZN5LIGHT17check_DesignTableEv:        ## @_ZN5LIGHT17check_DesignTableEv
Lfunc_begin13:
	.loc	16 311 0                ## /Users/nobuhiro/Documents/source/openframeworks/of_v0.9.0_osx_release/apps/myApps/Gusha_Entrance/src/Light.cpp:311:0
	.cfi_startproc
	.cfi_personality 155, ___gxx_personality_v0
	.cfi_lsda 16, Lexception13
## BB#0:
	pushq	%rbp
Ltmp578:
	.cfi_def_cfa_offset 16
Ltmp579:
	.cfi_offset %rbp, -16
	movq	%rsp, %rbp
Ltmp580:
	.cfi_def_cfa_register %rbp
	.loc	16 314 2 prologue_end   ## /Users/nobuhiro/Documents/source/openframeworks/of_v0.9.0_osx_release/apps/myApps/Gusha_Entrance/src/Light.cpp:314:2
Ltmp581:
	pushq	%r15
	pushq	%r14
	pushq	%r13
	pushq	%r12
	pushq	%rbx
	subq	$264, %rsp              ## imm = 0x108
Ltmp582:
	.cfi_offset %rbx, -56
Ltmp583:
	.cfi_offset %r12, -48
Ltmp584:
	.cfi_offset %r13, -40
Ltmp585:
	.cfi_offset %r14, -32
Ltmp586:
	.cfi_offset %r15, -24
	##DEBUG_VALUE: check_DesignTable:this <- RDI
	leaq	L_str62(%rip), %rdi
Ltmp587:
	callq	_puts
Ltmp588:
	##DEBUG_VALUE: i <- 0
	.loc	16 316 18               ## /Users/nobuhiro/Documents/source/openframeworks/of_v0.9.0_osx_release/apps/myApps/Gusha_Entrance/src/Light.cpp:316:18
	movq	_T_NumBlocksOn@GOTPCREL(%rip), %rax
	movl	(%rax), %edx
	xorl	%esi, %esi
Ltmp589:
	.loc	16 316 6 is_stmt 0      ## /Users/nobuhiro/Documents/source/openframeworks/of_v0.9.0_osx_release/apps/myApps/Gusha_Entrance/src/Light.cpp:316:6
	cmpl	$6, %edx
	jge	LBB13_1
## BB#64:
Ltmp590:
	##DEBUG_VALUE: check_DesignTable:this <- RDI
	##DEBUG_VALUE: i <- 0
	.loc	16 316 18               ## /Users/nobuhiro/Documents/source/openframeworks/of_v0.9.0_osx_release/apps/myApps/Gusha_Entrance/src/Light.cpp:316:18
	movl	4(%rax), %edx
	movl	$1, %esi
	.loc	16 316 16               ## /Users/nobuhiro/Documents/source/openframeworks/of_v0.9.0_osx_release/apps/myApps/Gusha_Entrance/src/Light.cpp:316:16
	cmpl	$5, %edx
	jg	LBB13_1
Ltmp591:
## BB#65:
	##DEBUG_VALUE: check_DesignTable:this <- RDI
	##DEBUG_VALUE: i <- 0
	.loc	16 316 18               ## /Users/nobuhiro/Documents/source/openframeworks/of_v0.9.0_osx_release/apps/myApps/Gusha_Entrance/src/Light.cpp:316:18
	movl	8(%rax), %edx
	movl	$2, %esi
	.loc	16 316 16               ## /Users/nobuhiro/Documents/source/openframeworks/of_v0.9.0_osx_release/apps/myApps/Gusha_Entrance/src/Light.cpp:316:16
	cmpl	$5, %edx
	jg	LBB13_1
Ltmp592:
## BB#66:
	##DEBUG_VALUE: check_DesignTable:this <- RDI
	##DEBUG_VALUE: i <- 0
	.loc	16 316 18               ## /Users/nobuhiro/Documents/source/openframeworks/of_v0.9.0_osx_release/apps/myApps/Gusha_Entrance/src/Light.cpp:316:18
	movl	12(%rax), %edx
	movl	$3, %esi
	.loc	16 316 16               ## /Users/nobuhiro/Documents/source/openframeworks/of_v0.9.0_osx_release/apps/myApps/Gusha_Entrance/src/Light.cpp:316:16
	cmpl	$5, %edx
	jg	LBB13_1
Ltmp593:
## BB#67:
	##DEBUG_VALUE: check_DesignTable:this <- RDI
	##DEBUG_VALUE: i <- 0
	.loc	16 316 18               ## /Users/nobuhiro/Documents/source/openframeworks/of_v0.9.0_osx_release/apps/myApps/Gusha_Entrance/src/Light.cpp:316:18
	movl	16(%rax), %edx
	movl	$4, %esi
	.loc	16 316 16               ## /Users/nobuhiro/Documents/source/openframeworks/of_v0.9.0_osx_release/apps/myApps/Gusha_Entrance/src/Light.cpp:316:16
	cmpl	$5, %edx
	jg	LBB13_1
Ltmp594:
## BB#68:
	##DEBUG_VALUE: check_DesignTable:this <- RDI
	.loc	16 321 2 is_stmt 1      ## /Users/nobuhiro/Documents/source/openframeworks/of_v0.9.0_osx_release/apps/myApps/Gusha_Entrance/src/Light.cpp:321:2
	leaq	L_str69(%rip), %rdi
Ltmp595:
	callq	_puts
	.loc	16 325 2                ## /Users/nobuhiro/Documents/source/openframeworks/of_v0.9.0_osx_release/apps/myApps/Gusha_Entrance/src/Light.cpp:325:2
	leaq	L_str64(%rip), %rdi
	callq	_puts
Ltmp596:
	##DEBUG_VALUE: i <- 0
	.loc	16 327 18               ## /Users/nobuhiro/Documents/source/openframeworks/of_v0.9.0_osx_release/apps/myApps/Gusha_Entrance/src/Light.cpp:327:18
	movq	_T_NumBlocksOn__Layer_Strobe@GOTPCREL(%rip), %rax
	movl	(%rax), %edx
	xorl	%esi, %esi
	.loc	16 327 16 is_stmt 0     ## /Users/nobuhiro/Documents/source/openframeworks/of_v0.9.0_osx_release/apps/myApps/Gusha_Entrance/src/Light.cpp:327:16
	cmpl	$5, %edx
	jg	LBB13_69
## BB#59:
Ltmp597:
	##DEBUG_VALUE: check_DesignTable:this <- RDI
	##DEBUG_VALUE: i <- 0
	.loc	16 327 18               ## /Users/nobuhiro/Documents/source/openframeworks/of_v0.9.0_osx_release/apps/myApps/Gusha_Entrance/src/Light.cpp:327:18
	movl	4(%rax), %edx
	movl	$1, %esi
	.loc	16 327 16               ## /Users/nobuhiro/Documents/source/openframeworks/of_v0.9.0_osx_release/apps/myApps/Gusha_Entrance/src/Light.cpp:327:16
	cmpl	$5, %edx
	jg	LBB13_69
Ltmp598:
## BB#60:
	##DEBUG_VALUE: check_DesignTable:this <- RDI
	##DEBUG_VALUE: i <- 0
	.loc	16 327 18               ## /Users/nobuhiro/Documents/source/openframeworks/of_v0.9.0_osx_release/apps/myApps/Gusha_Entrance/src/Light.cpp:327:18
	movl	8(%rax), %edx
	movl	$2, %esi
	.loc	16 327 16               ## /Users/nobuhiro/Documents/source/openframeworks/of_v0.9.0_osx_release/apps/myApps/Gusha_Entrance/src/Light.cpp:327:16
	cmpl	$5, %edx
	jg	LBB13_69
Ltmp599:
## BB#61:
	##DEBUG_VALUE: check_DesignTable:this <- RDI
	##DEBUG_VALUE: i <- 0
	.loc	16 327 18               ## /Users/nobuhiro/Documents/source/openframeworks/of_v0.9.0_osx_release/apps/myApps/Gusha_Entrance/src/Light.cpp:327:18
	movl	12(%rax), %edx
	movl	$3, %esi
	.loc	16 327 16               ## /Users/nobuhiro/Documents/source/openframeworks/of_v0.9.0_osx_release/apps/myApps/Gusha_Entrance/src/Light.cpp:327:16
	cmpl	$5, %edx
	jg	LBB13_69
Ltmp600:
## BB#62:
	##DEBUG_VALUE: check_DesignTable:this <- RDI
	##DEBUG_VALUE: i <- 0
	.loc	16 327 18               ## /Users/nobuhiro/Documents/source/openframeworks/of_v0.9.0_osx_release/apps/myApps/Gusha_Entrance/src/Light.cpp:327:18
	movl	16(%rax), %edx
	movl	$4, %esi
	.loc	16 327 16               ## /Users/nobuhiro/Documents/source/openframeworks/of_v0.9.0_osx_release/apps/myApps/Gusha_Entrance/src/Light.cpp:327:16
	cmpl	$5, %edx
	jg	LBB13_69
Ltmp601:
## BB#63:
	##DEBUG_VALUE: check_DesignTable:this <- RDI
	.loc	16 332 2 is_stmt 1      ## /Users/nobuhiro/Documents/source/openframeworks/of_v0.9.0_osx_release/apps/myApps/Gusha_Entrance/src/Light.cpp:332:2
	leaq	L_str69(%rip), %rdi
Ltmp602:
	callq	_puts
	.loc	16 336 2                ## /Users/nobuhiro/Documents/source/openframeworks/of_v0.9.0_osx_release/apps/myApps/Gusha_Entrance/src/Light.cpp:336:2
	leaq	L_str66(%rip), %rdi
	callq	_puts
Ltmp603:
	##DEBUG_VALUE: i <- 0
	movq	_T_SelectFunc_GetLum@GOTPCREL(%rip), %rax
	leaq	72(%rax), %rcx
	movq	%rcx, -288(%rbp)        ## 8-byte Spill
	leaq	16(%rax), %rcx
	.loc	5 1752 59               ## /Applications/Xcode.app/Contents/Developer/Toolchains/XcodeDefault.xctoolchain/usr/bin/../include/c++/v1/string:1752:59
Ltmp604:
	movq	%rcx, -272(%rbp)        ## 8-byte Spill
	leaq	-96(%rbp), %r14
	movq	%rax, -280(%rbp)        ## 8-byte Spill
	xorl	%r12d, %r12d
Ltmp605:
	.align	4, 0x90
LBB13_3:                                ## =>This Loop Header: Depth=1
                                        ##     Child Loop BB13_6 Depth 2
                                        ##     Child Loop BB13_9 Depth 2
                                        ##     Child Loop BB13_12 Depth 2
	##DEBUG_VALUE: check_DesignTable:this <- RDI
	##DEBUG_VALUE: i <- 0
	xorl	%eax, %eax
	.loc	16 338 3                ## /Users/nobuhiro/Documents/source/openframeworks/of_v0.9.0_osx_release/apps/myApps/Gusha_Entrance/src/Light.cpp:338:3
	leaq	L_.str39(%rip), %rdi
Ltmp606:
	movl	%r12d, %esi
	callq	_printf
	.loc	16 340 56               ## /Users/nobuhiro/Documents/source/openframeworks/of_v0.9.0_osx_release/apps/myApps/Gusha_Entrance/src/Light.cpp:340:56
	imulq	$720, %r12, %rdi        ## imm = 0x2D0
	addq	_T_SelectFunc_GetLum@GOTPCREL(%rip), %rdi
	movl	$30, %esi
	.loc	16 340 23 is_stmt 0     ## /Users/nobuhiro/Documents/source/openframeworks/of_v0.9.0_osx_release/apps/myApps/Gusha_Entrance/src/Light.cpp:340:23
	callq	__ZN12L_TABLE_UTIL18Count_NumCandidateEP16SEL__FUNC_GETLUMi
                                        ## kill: EAX<def> EAX<kill> RAX<def>
Ltmp607:
	##DEBUG_VALUE: j <- 0
	##DEBUG_VALUE: TotalWeight <- 0.000000e+00
	##DEBUG_VALUE: NumCandidates <- EAX
	.loc	16 342 3 is_stmt 1      ## /Users/nobuhiro/Documents/source/openframeworks/of_v0.9.0_osx_release/apps/myApps/Gusha_Entrance/src/Light.cpp:342:3
	testl	%eax, %eax
	jle	LBB13_17
Ltmp608:
## BB#4:                                ## %.lr.ph60
                                        ##   in Loop: Header=BB13_3 Depth=1
	##DEBUG_VALUE: check_DesignTable:this <- RDI
	##DEBUG_VALUE: NumCandidates <- EAX
	##DEBUG_VALUE: TotalWeight <- 0.000000e+00
	##DEBUG_VALUE: j <- 0
	##DEBUG_VALUE: i <- 0
	leal	-1(%rax), %edx
	xorpd	%xmm1, %xmm1
	testb	$3, %al
	movl	$0, %ecx
	je	LBB13_7
Ltmp609:
## BB#5:                                ## %.preheader119
                                        ##   in Loop: Header=BB13_3 Depth=1
	##DEBUG_VALUE: check_DesignTable:this <- RDI
	movq	%rax, %rsi
	andq	$3, %rsi
	xorpd	%xmm1, %xmm1
	movq	-280(%rbp), %rdi        ## 8-byte Reload
Ltmp610:
	xorl	%ecx, %ecx
	.align	4, 0x90
LBB13_6:                                ##   Parent Loop BB13_3 Depth=1
                                        ## =>  This Inner Loop Header: Depth=2
Ltmp611:
	##DEBUG_VALUE: check_DesignTable:this <- RDI
	.loc	16 343 19               ## /Users/nobuhiro/Documents/source/openframeworks/of_v0.9.0_osx_release/apps/myApps/Gusha_Entrance/src/Light.cpp:343:19
	xorps	%xmm0, %xmm0
	cvtsi2sdl	(%rdi), %xmm0
	.loc	16 343 16 is_stmt 0     ## /Users/nobuhiro/Documents/source/openframeworks/of_v0.9.0_osx_release/apps/myApps/Gusha_Entrance/src/Light.cpp:343:16
	addsd	%xmm0, %xmm1
Ltmp612:
	##DEBUG_VALUE: TotalWeight <- XMM1
	.loc	16 342 3 is_stmt 1      ## /Users/nobuhiro/Documents/source/openframeworks/of_v0.9.0_osx_release/apps/myApps/Gusha_Entrance/src/Light.cpp:342:3
	incq	%rcx
	addq	$24, %rdi
Ltmp613:
	cmpl	%ecx, %esi
	jne	LBB13_6
Ltmp614:
LBB13_7:                                ## %.lr.ph60.split
                                        ##   in Loop: Header=BB13_3 Depth=1
	##DEBUG_VALUE: check_DesignTable:this <- RDI
	cmpl	$3, %edx
	jb	LBB13_10
Ltmp615:
## BB#8:                                ## %.lr.ph60.split.split
                                        ##   in Loop: Header=BB13_3 Depth=1
	##DEBUG_VALUE: check_DesignTable:this <- RDI
	leaq	(%rcx,%rcx,2), %rdx
	movq	-288(%rbp), %rsi        ## 8-byte Reload
	leaq	(%rsi,%rdx,8), %rdx
	leal	3(%rax), %esi
	leal	3(%rcx), %edi
Ltmp616:
	subl	%edi, %esi
	.align	4, 0x90
LBB13_9:                                ##   Parent Loop BB13_3 Depth=1
                                        ## =>  This Inner Loop Header: Depth=2
Ltmp617:
	##DEBUG_VALUE: check_DesignTable:this <- RDI
	.loc	16 343 19               ## /Users/nobuhiro/Documents/source/openframeworks/of_v0.9.0_osx_release/apps/myApps/Gusha_Entrance/src/Light.cpp:343:19
	xorps	%xmm0, %xmm0
	cvtsi2sdl	-72(%rdx), %xmm0
	.loc	16 343 16 is_stmt 0     ## /Users/nobuhiro/Documents/source/openframeworks/of_v0.9.0_osx_release/apps/myApps/Gusha_Entrance/src/Light.cpp:343:16
	addsd	%xmm1, %xmm0
Ltmp618:
	##DEBUG_VALUE: TotalWeight <- XMM0
	.loc	16 343 19               ## /Users/nobuhiro/Documents/source/openframeworks/of_v0.9.0_osx_release/apps/myApps/Gusha_Entrance/src/Light.cpp:343:19
	xorps	%xmm1, %xmm1
	cvtsi2sdl	-48(%rdx), %xmm1
	.loc	16 343 16               ## /Users/nobuhiro/Documents/source/openframeworks/of_v0.9.0_osx_release/apps/myApps/Gusha_Entrance/src/Light.cpp:343:16
	addsd	%xmm0, %xmm1
	.loc	16 343 19               ## /Users/nobuhiro/Documents/source/openframeworks/of_v0.9.0_osx_release/apps/myApps/Gusha_Entrance/src/Light.cpp:343:19
	xorps	%xmm0, %xmm0
Ltmp619:
	cvtsi2sdl	-24(%rdx), %xmm0
	.loc	16 343 16               ## /Users/nobuhiro/Documents/source/openframeworks/of_v0.9.0_osx_release/apps/myApps/Gusha_Entrance/src/Light.cpp:343:16
	addsd	%xmm1, %xmm0
	.loc	16 343 19               ## /Users/nobuhiro/Documents/source/openframeworks/of_v0.9.0_osx_release/apps/myApps/Gusha_Entrance/src/Light.cpp:343:19
	xorps	%xmm1, %xmm1
	cvtsi2sdl	(%rdx), %xmm1
	.loc	16 343 16               ## /Users/nobuhiro/Documents/source/openframeworks/of_v0.9.0_osx_release/apps/myApps/Gusha_Entrance/src/Light.cpp:343:16
	addsd	%xmm0, %xmm1
Ltmp620:
	.loc	16 342 3 is_stmt 1      ## /Users/nobuhiro/Documents/source/openframeworks/of_v0.9.0_osx_release/apps/myApps/Gusha_Entrance/src/Light.cpp:342:3
	addq	$4, %rcx
	addq	$96, %rdx
	addl	$-4, %esi
	jne	LBB13_9
Ltmp621:
LBB13_10:                               ## %.preheader38
                                        ##   in Loop: Header=BB13_3 Depth=1
	##DEBUG_VALUE: check_DesignTable:this <- RDI
	movsd	%xmm1, -264(%rbp)       ## 8-byte Spill
	.loc	16 345 3                ## /Users/nobuhiro/Documents/source/openframeworks/of_v0.9.0_osx_release/apps/myApps/Gusha_Entrance/src/Light.cpp:345:3
Ltmp622:
	testl	%eax, %eax
	jle	LBB13_17
Ltmp623:
## BB#11:                               ## %.lr.ph63
                                        ##   in Loop: Header=BB13_3 Depth=1
	##DEBUG_VALUE: check_DesignTable:this <- RDI
	movslq	%eax, %r15
	movq	-272(%rbp), %r13        ## 8-byte Reload
	xorl	%ebx, %ebx
Ltmp624:
	.align	4, 0x90
LBB13_12:                               ##   Parent Loop BB13_3 Depth=1
                                        ## =>  This Inner Loop Header: Depth=2
	##DEBUG_VALUE: check_DesignTable:this <- RDI
	.loc	16 346 7                ## /Users/nobuhiro/Documents/source/openframeworks/of_v0.9.0_osx_release/apps/myApps/Gusha_Entrance/src/Light.cpp:346:7
	cmpl	$0, -16(%r13)
	jle	LBB13_16
Ltmp625:
## BB#13:                               ##   in Loop: Header=BB13_12 Depth=2
	##DEBUG_VALUE: check_DesignTable:this <- RDI
	##DEBUG_VALUE: __i <- 0
	xorps	%xmm0, %xmm0
	.loc	5 1765 26               ## /Applications/Xcode.app/Contents/Developer/Toolchains/XcodeDefault.xctoolchain/usr/bin/../include/c++/v1/string:1765:26
Ltmp626:
	movaps	%xmm0, -64(%rbp)
	movq	$0, -48(%rbp)
Ltmp627:
	##DEBUG_VALUE: __i <- 0
	.loc	5 1765 26 is_stmt 0     ## /Applications/Xcode.app/Contents/Developer/Toolchains/XcodeDefault.xctoolchain/usr/bin/../include/c++/v1/string:1765:26
	movaps	%xmm0, -96(%rbp)
	movq	$0, -80(%rbp)
Ltmp628:
	.loc	16 350 37 is_stmt 1     ## /Users/nobuhiro/Documents/source/openframeworks/of_v0.9.0_osx_release/apps/myApps/Gusha_Entrance/src/Light.cpp:350:37
	movq	-8(%r13), %rax
Ltmp629:
	##DEBUG_VALUE: sjRGBW:_w <- 0.000000e+00
	##DEBUG_VALUE: sjRGBW:_b <- 0.000000e+00
	##DEBUG_VALUE: sjRGBW:_g <- 0.000000e+00
	##DEBUG_VALUE: sjRGBW:_r <- 0.000000e+00
	.loc	17 31 11                ## /Users/nobuhiro/Documents/source/openframeworks/of_v0.9.0_osx_release/apps/myApps/Gusha_Entrance/src/L_common.h:31:11
	movaps	%xmm0, -112(%rbp)
	movaps	%xmm0, -128(%rbp)
Ltmp630:
	.loc	17 31 11 is_stmt 0      ## /Users/nobuhiro/Documents/source/openframeworks/of_v0.9.0_osx_release/apps/myApps/Gusha_Entrance/src/L_common.h:31:11
	movaps	%xmm0, -144(%rbp)
	movaps	%xmm0, -160(%rbp)
Ltmp631:
	.loc	16 350 11 is_stmt 1     ## /Users/nobuhiro/Documents/source/openframeworks/of_v0.9.0_osx_release/apps/myApps/Gusha_Entrance/src/Light.cpp:350:11
Ltmp568:
Ltmp632:
	##DEBUG_VALUE: __zero:this <- undef
	##DEBUG_VALUE: basic_string:this <- undef
	##DEBUG_VALUE: basic_string:this <- undef
	##DEBUG_VALUE: Name_Func <- undef
	leaq	-64(%rbp), %rcx
	movq	%rcx, (%rsp)
Ltmp633:
	##DEBUG_VALUE: sjRGBW:this <- undef
	##DEBUG_VALUE: sjRGBW:_w <- 0.000000e+00
	##DEBUG_VALUE: sjRGBW:_b <- 0.000000e+00
	##DEBUG_VALUE: sjRGBW:_g <- 0.000000e+00
	##DEBUG_VALUE: sjRGBW:_r <- 0.000000e+00
	##DEBUG_VALUE: sjRGBW:_w <- 0.000000e+00
	##DEBUG_VALUE: sjRGBW:_b <- 0.000000e+00
	##DEBUG_VALUE: sjRGBW:_g <- 0.000000e+00
	##DEBUG_VALUE: sjRGBW:_r <- 0.000000e+00
	##DEBUG_VALUE: sjRGBW:this <- undef
	##DEBUG_VALUE: sjRGBW:_w <- 0.000000e+00
	##DEBUG_VALUE: sjRGBW:_b <- 0.000000e+00
	##DEBUG_VALUE: sjRGBW:_g <- 0.000000e+00
	##DEBUG_VALUE: sjRGBW:_r <- 0.000000e+00
	xorps	%xmm0, %xmm0
	movl	$0, %esi
	movl	$0, %edx
	xorpd	%xmm1, %xmm1
	xorpd	%xmm2, %xmm2
	xorpd	%xmm3, %xmm3
	xorpd	%xmm4, %xmm4
	xorpd	%xmm5, %xmm5
	movl	$1, %ecx
	xorpd	%xmm6, %xmm6
	xorpd	%xmm7, %xmm7
	leaq	-192(%rbp), %rdi
Ltmp634:
	leaq	-128(%rbp), %r8
	leaq	-160(%rbp), %r9
	callq	*%rax
Ltmp569:
## BB#14:                               ##   in Loop: Header=BB13_12 Depth=2
Ltmp635:
	##DEBUG_VALUE: check_DesignTable:this <- RDI
	##DEBUG_VALUE: Name_Func <- undef
	.loc	16 351 37               ## /Users/nobuhiro/Documents/source/openframeworks/of_v0.9.0_osx_release/apps/myApps/Gusha_Entrance/src/Light.cpp:351:37
	movq	(%r13), %rax
	.loc	16 351 11 is_stmt 0     ## /Users/nobuhiro/Documents/source/openframeworks/of_v0.9.0_osx_release/apps/myApps/Gusha_Entrance/src/Light.cpp:351:11
Ltmp570:
	xorl	%edi, %edi
Ltmp636:
	xorl	%esi, %esi
	movq	%r14, %rdx
	callq	*%rax
Ltmp571:
## BB#15:                               ## %_ZNKSt3__112basic_stringIcNS_11char_traitsIcEENS_9allocatorIcEEE5c_strEv.exit35
                                        ##   in Loop: Header=BB13_12 Depth=2
Ltmp637:
	##DEBUG_VALUE: check_DesignTable:this <- RDI
	##DEBUG_VALUE: Name_Func <- undef
	.loc	16 352 44 is_stmt 1     ## /Users/nobuhiro/Documents/source/openframeworks/of_v0.9.0_osx_release/apps/myApps/Gusha_Entrance/src/Light.cpp:352:44
	imull	$100, -16(%r13), %eax
	.loc	16 352 40 is_stmt 0     ## /Users/nobuhiro/Documents/source/openframeworks/of_v0.9.0_osx_release/apps/myApps/Gusha_Entrance/src/Light.cpp:352:40
	cvtsi2sdl	%eax, %xmm0
	.loc	16 352 79               ## /Users/nobuhiro/Documents/source/openframeworks/of_v0.9.0_osx_release/apps/myApps/Gusha_Entrance/src/Light.cpp:352:79
	divsd	-264(%rbp), %xmm0       ## 8-byte Folded Reload
	.loc	5 1664 22 is_stmt 1     ## /Applications/Xcode.app/Contents/Developer/Toolchains/XcodeDefault.xctoolchain/usr/bin/../include/c++/v1/string:1664:22
Ltmp638:
	testb	$1, -64(%rbp)
	movq	-48(%rbp), %rsi
Ltmp639:
	.loc	5 1752 59               ## /Applications/Xcode.app/Contents/Developer/Toolchains/XcodeDefault.xctoolchain/usr/bin/../include/c++/v1/string:1752:59
	leaq	-63(%rbp), %rax
Ltmp640:
	.loc	5 1758 17               ## /Applications/Xcode.app/Contents/Developer/Toolchains/XcodeDefault.xctoolchain/usr/bin/../include/c++/v1/string:1758:17
	cmoveq	%rax, %rsi
Ltmp641:
	##DEBUG_VALUE: __to_raw_pointer<const char>:__p <- RSI
	.loc	5 1664 22               ## /Applications/Xcode.app/Contents/Developer/Toolchains/XcodeDefault.xctoolchain/usr/bin/../include/c++/v1/string:1664:22
	testb	$1, -96(%rbp)
	movq	-80(%rbp), %rdx
Ltmp642:
	.loc	5 1752 59               ## /Applications/Xcode.app/Contents/Developer/Toolchains/XcodeDefault.xctoolchain/usr/bin/../include/c++/v1/string:1752:59
	leaq	-95(%rbp), %rax
Ltmp643:
	.loc	5 1758 17               ## /Applications/Xcode.app/Contents/Developer/Toolchains/XcodeDefault.xctoolchain/usr/bin/../include/c++/v1/string:1758:17
	cmoveq	%rax, %rdx
Ltmp644:
	##DEBUG_VALUE: __to_raw_pointer<const char>:__p <- RDX
	movb	$1, %al
Ltmp645:
	.loc	16 352 5                ## /Users/nobuhiro/Documents/source/openframeworks/of_v0.9.0_osx_release/apps/myApps/Gusha_Entrance/src/Light.cpp:352:5
	leaq	L_.str40(%rip), %rdi
Ltmp646:
	callq	_printf
Ltmp647:
	##DEBUG_VALUE: Name_FixIdOrder <- [R14+0]
	##DEBUG_VALUE: __get_long_pointer:this <- [R14+0]
	##DEBUG_VALUE: __is_long:this <- [R14+0]
	.loc	16 353 4                ## /Users/nobuhiro/Documents/source/openframeworks/of_v0.9.0_osx_release/apps/myApps/Gusha_Entrance/src/Light.cpp:353:4
	movq	%r14, %rdi
	callq	__ZNSt3__112basic_stringIcNS_11char_traitsIcEENS_9allocatorIcEEED1Ev
Ltmp648:
	##DEBUG_VALUE: __get_long_pointer:this <- undef
	##DEBUG_VALUE: __is_long:this <- undef
	leaq	-64(%rbp), %rdi
	callq	__ZNSt3__112basic_stringIcNS_11char_traitsIcEENS_9allocatorIcEEED1Ev
Ltmp649:
LBB13_16:                               ##   in Loop: Header=BB13_12 Depth=2
	##DEBUG_VALUE: check_DesignTable:this <- RDI
	.loc	16 345 3                ## /Users/nobuhiro/Documents/source/openframeworks/of_v0.9.0_osx_release/apps/myApps/Gusha_Entrance/src/Light.cpp:345:3
	incq	%rbx
	.loc	16 345 20 is_stmt 0     ## /Users/nobuhiro/Documents/source/openframeworks/of_v0.9.0_osx_release/apps/myApps/Gusha_Entrance/src/Light.cpp:345:20
Ltmp650:
	addq	$24, %r13
	cmpq	%r15, %rbx
	jl	LBB13_12
Ltmp651:
LBB13_17:                               ## %._crit_edge64
                                        ##   in Loop: Header=BB13_3 Depth=1
	##DEBUG_VALUE: check_DesignTable:this <- RDI
	##DEBUG_VALUE: TotalWeight <- 0.000000e+00
	##DEBUG_VALUE: i <- 0
	movl	$10, %edi
Ltmp652:
	.loc	16 355 3 is_stmt 1      ## /Users/nobuhiro/Documents/source/openframeworks/of_v0.9.0_osx_release/apps/myApps/Gusha_Entrance/src/Light.cpp:355:3
	callq	_putchar
Ltmp653:
	.loc	16 337 2                ## /Users/nobuhiro/Documents/source/openframeworks/of_v0.9.0_osx_release/apps/myApps/Gusha_Entrance/src/Light.cpp:337:2
	incq	%r12
	addq	$720, -280(%rbp)        ## 8-byte Folded Spill
                                        ## imm = 0x2D0
	addq	$720, -288(%rbp)        ## 8-byte Folded Spill
                                        ## imm = 0x2D0
	addq	$720, -272(%rbp)        ## 8-byte Folded Spill
                                        ## imm = 0x2D0
	.loc	16 337 19 is_stmt 0     ## /Users/nobuhiro/Documents/source/openframeworks/of_v0.9.0_osx_release/apps/myApps/Gusha_Entrance/src/Light.cpp:337:19
Ltmp654:
	cmpq	$5, %r12
	jl	LBB13_3
Ltmp655:
## BB#18:
	##DEBUG_VALUE: check_DesignTable:this <- RDI
	.loc	16 360 2 is_stmt 1      ## /Users/nobuhiro/Documents/source/openframeworks/of_v0.9.0_osx_release/apps/myApps/Gusha_Entrance/src/Light.cpp:360:2
	leaq	L_str67(%rip), %rdi
Ltmp656:
	callq	_puts
Ltmp657:
	##DEBUG_VALUE: i <- 0
	movq	_T_SelectFunc_GetPos@GOTPCREL(%rip), %rax
	leaq	72(%rax), %rcx
	movq	%rcx, -288(%rbp)        ## 8-byte Spill
	leaq	16(%rax), %rcx
	.loc	5 1752 59               ## /Applications/Xcode.app/Contents/Developer/Toolchains/XcodeDefault.xctoolchain/usr/bin/../include/c++/v1/string:1752:59
Ltmp658:
	movq	%rcx, -272(%rbp)        ## 8-byte Spill
	leaq	-256(%rbp), %r13
	movq	%rax, -280(%rbp)        ## 8-byte Spill
	xorl	%ebx, %ebx
Ltmp659:
	.align	4, 0x90
LBB13_19:                               ## =>This Loop Header: Depth=1
                                        ##     Child Loop BB13_22 Depth 2
                                        ##     Child Loop BB13_25 Depth 2
                                        ##     Child Loop BB13_28 Depth 2
	##DEBUG_VALUE: check_DesignTable:this <- RDI
	##DEBUG_VALUE: i <- 0
	xorl	%eax, %eax
	.loc	16 362 3                ## /Users/nobuhiro/Documents/source/openframeworks/of_v0.9.0_osx_release/apps/myApps/Gusha_Entrance/src/Light.cpp:362:3
	leaq	L_.str39(%rip), %rdi
Ltmp660:
	movl	%ebx, %esi
	callq	_printf
	.loc	16 364 56               ## /Users/nobuhiro/Documents/source/openframeworks/of_v0.9.0_osx_release/apps/myApps/Gusha_Entrance/src/Light.cpp:364:56
	imulq	$720, %rbx, %rdi        ## imm = 0x2D0
	addq	_T_SelectFunc_GetPos@GOTPCREL(%rip), %rdi
	movl	$30, %esi
	.loc	16 364 23 is_stmt 0     ## /Users/nobuhiro/Documents/source/openframeworks/of_v0.9.0_osx_release/apps/myApps/Gusha_Entrance/src/Light.cpp:364:23
	callq	__ZN12L_TABLE_UTIL18Count_NumCandidateEP16SEL__FUNC_GETPOSi
                                        ## kill: EAX<def> EAX<kill> RAX<def>
Ltmp661:
	##DEBUG_VALUE: j <- 0
	##DEBUG_VALUE: TotalWeight <- 0.000000e+00
	##DEBUG_VALUE: NumCandidates <- EAX
	.loc	16 366 3 is_stmt 1      ## /Users/nobuhiro/Documents/source/openframeworks/of_v0.9.0_osx_release/apps/myApps/Gusha_Entrance/src/Light.cpp:366:3
	testl	%eax, %eax
	jle	LBB13_33
Ltmp662:
## BB#20:                               ## %.lr.ph51
                                        ##   in Loop: Header=BB13_19 Depth=1
	##DEBUG_VALUE: check_DesignTable:this <- RDI
	##DEBUG_VALUE: i <- 0
	##DEBUG_VALUE: NumCandidates <- EAX
	##DEBUG_VALUE: TotalWeight <- 0.000000e+00
	##DEBUG_VALUE: j <- 0
	leal	-1(%rax), %edx
	xorpd	%xmm1, %xmm1
	testb	$3, %al
	movl	$0, %ecx
	je	LBB13_23
Ltmp663:
## BB#21:                               ## %.preheader115
                                        ##   in Loop: Header=BB13_19 Depth=1
	##DEBUG_VALUE: check_DesignTable:this <- RDI
	movq	%rax, %rsi
	andq	$3, %rsi
	xorpd	%xmm1, %xmm1
	movq	-280(%rbp), %rdi        ## 8-byte Reload
Ltmp664:
	xorl	%ecx, %ecx
	.align	4, 0x90
LBB13_22:                               ##   Parent Loop BB13_19 Depth=1
                                        ## =>  This Inner Loop Header: Depth=2
Ltmp665:
	##DEBUG_VALUE: check_DesignTable:this <- RDI
	.loc	16 367 19               ## /Users/nobuhiro/Documents/source/openframeworks/of_v0.9.0_osx_release/apps/myApps/Gusha_Entrance/src/Light.cpp:367:19
	xorps	%xmm0, %xmm0
	cvtsi2sdl	(%rdi), %xmm0
	.loc	16 367 16 is_stmt 0     ## /Users/nobuhiro/Documents/source/openframeworks/of_v0.9.0_osx_release/apps/myApps/Gusha_Entrance/src/Light.cpp:367:16
	addsd	%xmm0, %xmm1
Ltmp666:
	##DEBUG_VALUE: TotalWeight <- XMM1
	.loc	16 366 3 is_stmt 1      ## /Users/nobuhiro/Documents/source/openframeworks/of_v0.9.0_osx_release/apps/myApps/Gusha_Entrance/src/Light.cpp:366:3
	incq	%rcx
	addq	$24, %rdi
Ltmp667:
	cmpl	%ecx, %esi
	jne	LBB13_22
Ltmp668:
LBB13_23:                               ## %.lr.ph51.split
                                        ##   in Loop: Header=BB13_19 Depth=1
	##DEBUG_VALUE: check_DesignTable:this <- RDI
	cmpl	$3, %edx
	jb	LBB13_26
Ltmp669:
## BB#24:                               ## %.lr.ph51.split.split
                                        ##   in Loop: Header=BB13_19 Depth=1
	##DEBUG_VALUE: check_DesignTable:this <- RDI
	leaq	(%rcx,%rcx,2), %rdx
	movq	-288(%rbp), %rsi        ## 8-byte Reload
	leaq	(%rsi,%rdx,8), %rdx
	leal	3(%rax), %esi
	leal	3(%rcx), %edi
Ltmp670:
	subl	%edi, %esi
	.align	4, 0x90
LBB13_25:                               ##   Parent Loop BB13_19 Depth=1
                                        ## =>  This Inner Loop Header: Depth=2
Ltmp671:
	##DEBUG_VALUE: check_DesignTable:this <- RDI
	.loc	16 367 19               ## /Users/nobuhiro/Documents/source/openframeworks/of_v0.9.0_osx_release/apps/myApps/Gusha_Entrance/src/Light.cpp:367:19
	xorps	%xmm0, %xmm0
	cvtsi2sdl	-72(%rdx), %xmm0
	.loc	16 367 16 is_stmt 0     ## /Users/nobuhiro/Documents/source/openframeworks/of_v0.9.0_osx_release/apps/myApps/Gusha_Entrance/src/Light.cpp:367:16
	addsd	%xmm1, %xmm0
Ltmp672:
	##DEBUG_VALUE: TotalWeight <- XMM0
	.loc	16 367 19               ## /Users/nobuhiro/Documents/source/openframeworks/of_v0.9.0_osx_release/apps/myApps/Gusha_Entrance/src/Light.cpp:367:19
	xorps	%xmm1, %xmm1
	cvtsi2sdl	-48(%rdx), %xmm1
	.loc	16 367 16               ## /Users/nobuhiro/Documents/source/openframeworks/of_v0.9.0_osx_release/apps/myApps/Gusha_Entrance/src/Light.cpp:367:16
	addsd	%xmm0, %xmm1
	.loc	16 367 19               ## /Users/nobuhiro/Documents/source/openframeworks/of_v0.9.0_osx_release/apps/myApps/Gusha_Entrance/src/Light.cpp:367:19
	xorps	%xmm0, %xmm0
Ltmp673:
	cvtsi2sdl	-24(%rdx), %xmm0
	.loc	16 367 16               ## /Users/nobuhiro/Documents/source/openframeworks/of_v0.9.0_osx_release/apps/myApps/Gusha_Entrance/src/Light.cpp:367:16
	addsd	%xmm1, %xmm0
	.loc	16 367 19               ## /Users/nobuhiro/Documents/source/openframeworks/of_v0.9.0_osx_release/apps/myApps/Gusha_Entrance/src/Light.cpp:367:19
	xorps	%xmm1, %xmm1
	cvtsi2sdl	(%rdx), %xmm1
	.loc	16 367 16               ## /Users/nobuhiro/Documents/source/openframeworks/of_v0.9.0_osx_release/apps/myApps/Gusha_Entrance/src/Light.cpp:367:16
	addsd	%xmm0, %xmm1
Ltmp674:
	.loc	16 366 3 is_stmt 1      ## /Users/nobuhiro/Documents/source/openframeworks/of_v0.9.0_osx_release/apps/myApps/Gusha_Entrance/src/Light.cpp:366:3
	addq	$4, %rcx
	addq	$96, %rdx
	addl	$-4, %esi
	jne	LBB13_25
Ltmp675:
LBB13_26:                               ## %.preheader37
                                        ##   in Loop: Header=BB13_19 Depth=1
	##DEBUG_VALUE: check_DesignTable:this <- RDI
	movsd	%xmm1, -264(%rbp)       ## 8-byte Spill
	.loc	16 369 3                ## /Users/nobuhiro/Documents/source/openframeworks/of_v0.9.0_osx_release/apps/myApps/Gusha_Entrance/src/Light.cpp:369:3
Ltmp676:
	testl	%eax, %eax
	jle	LBB13_33
Ltmp677:
## BB#27:                               ## %.lr.ph54
                                        ##   in Loop: Header=BB13_19 Depth=1
	##DEBUG_VALUE: check_DesignTable:this <- RDI
	movslq	%eax, %r12
	movq	-272(%rbp), %r14        ## 8-byte Reload
	xorl	%r15d, %r15d
Ltmp678:
	.align	4, 0x90
LBB13_28:                               ##   Parent Loop BB13_19 Depth=1
                                        ## =>  This Inner Loop Header: Depth=2
	##DEBUG_VALUE: check_DesignTable:this <- RDI
	.loc	16 370 7                ## /Users/nobuhiro/Documents/source/openframeworks/of_v0.9.0_osx_release/apps/myApps/Gusha_Entrance/src/Light.cpp:370:7
	cmpl	$0, -16(%r14)
	jle	LBB13_32
Ltmp679:
## BB#29:                               ##   in Loop: Header=BB13_28 Depth=2
	##DEBUG_VALUE: check_DesignTable:this <- RDI
	##DEBUG_VALUE: __i <- 0
	xorps	%xmm0, %xmm0
	.loc	5 1765 26               ## /Applications/Xcode.app/Contents/Developer/Toolchains/XcodeDefault.xctoolchain/usr/bin/../include/c++/v1/string:1765:26
Ltmp680:
	movaps	%xmm0, -224(%rbp)
	movq	$0, -208(%rbp)
Ltmp681:
	##DEBUG_VALUE: __i <- 0
	.loc	5 1765 26 is_stmt 0     ## /Applications/Xcode.app/Contents/Developer/Toolchains/XcodeDefault.xctoolchain/usr/bin/../include/c++/v1/string:1765:26
	movaps	%xmm0, -256(%rbp)
	movq	$0, -240(%rbp)
Ltmp682:
	.loc	16 374 37 is_stmt 1     ## /Users/nobuhiro/Documents/source/openframeworks/of_v0.9.0_osx_release/apps/myApps/Gusha_Entrance/src/Light.cpp:374:37
	movq	-8(%r14), %rax
	.loc	16 374 11 is_stmt 0     ## /Users/nobuhiro/Documents/source/openframeworks/of_v0.9.0_osx_release/apps/myApps/Gusha_Entrance/src/Light.cpp:374:11
Ltmp573:
Ltmp683:
	##DEBUG_VALUE: __zero:this <- undef
	##DEBUG_VALUE: basic_string:this <- undef
	##DEBUG_VALUE: basic_string:this <- undef
	##DEBUG_VALUE: Name_Func <- undef
	xorps	%xmm0, %xmm0
	xorl	%edi, %edi
Ltmp684:
	xorl	%esi, %esi
	xorpd	%xmm1, %xmm1
	xorpd	%xmm2, %xmm2
	leaq	-224(%rbp), %rdx
	callq	*%rax
Ltmp574:
## BB#30:                               ##   in Loop: Header=BB13_28 Depth=2
Ltmp685:
	##DEBUG_VALUE: check_DesignTable:this <- RDI
	##DEBUG_VALUE: Name_Func <- undef
	.loc	16 375 37 is_stmt 1     ## /Users/nobuhiro/Documents/source/openframeworks/of_v0.9.0_osx_release/apps/myApps/Gusha_Entrance/src/Light.cpp:375:37
	movq	(%r14), %rax
	.loc	16 375 11 is_stmt 0     ## /Users/nobuhiro/Documents/source/openframeworks/of_v0.9.0_osx_release/apps/myApps/Gusha_Entrance/src/Light.cpp:375:11
Ltmp575:
	xorl	%edi, %edi
Ltmp686:
	xorl	%esi, %esi
	movq	%r13, %rdx
	callq	*%rax
Ltmp576:
## BB#31:                               ## %_ZNKSt3__112basic_stringIcNS_11char_traitsIcEENS_9allocatorIcEEE5c_strEv.exit30
                                        ##   in Loop: Header=BB13_28 Depth=2
Ltmp687:
	##DEBUG_VALUE: check_DesignTable:this <- RDI
	##DEBUG_VALUE: Name_Func <- undef
	.loc	16 377 44 is_stmt 1     ## /Users/nobuhiro/Documents/source/openframeworks/of_v0.9.0_osx_release/apps/myApps/Gusha_Entrance/src/Light.cpp:377:44
	imull	$100, -16(%r14), %eax
	.loc	16 377 40 is_stmt 0     ## /Users/nobuhiro/Documents/source/openframeworks/of_v0.9.0_osx_release/apps/myApps/Gusha_Entrance/src/Light.cpp:377:40
	cvtsi2sdl	%eax, %xmm0
	.loc	16 377 79               ## /Users/nobuhiro/Documents/source/openframeworks/of_v0.9.0_osx_release/apps/myApps/Gusha_Entrance/src/Light.cpp:377:79
	divsd	-264(%rbp), %xmm0       ## 8-byte Folded Reload
	.loc	5 1664 22 is_stmt 1     ## /Applications/Xcode.app/Contents/Developer/Toolchains/XcodeDefault.xctoolchain/usr/bin/../include/c++/v1/string:1664:22
Ltmp688:
	testb	$1, -224(%rbp)
	movq	-208(%rbp), %rsi
Ltmp689:
	.loc	5 1752 59               ## /Applications/Xcode.app/Contents/Developer/Toolchains/XcodeDefault.xctoolchain/usr/bin/../include/c++/v1/string:1752:59
	leaq	-223(%rbp), %rax
Ltmp690:
	.loc	5 1758 17               ## /Applications/Xcode.app/Contents/Developer/Toolchains/XcodeDefault.xctoolchain/usr/bin/../include/c++/v1/string:1758:17
	cmoveq	%rax, %rsi
Ltmp691:
	##DEBUG_VALUE: __to_raw_pointer<const char>:__p <- RSI
	.loc	5 1664 22               ## /Applications/Xcode.app/Contents/Developer/Toolchains/XcodeDefault.xctoolchain/usr/bin/../include/c++/v1/string:1664:22
	testb	$1, -256(%rbp)
	movq	-240(%rbp), %rdx
Ltmp692:
	.loc	5 1752 59               ## /Applications/Xcode.app/Contents/Developer/Toolchains/XcodeDefault.xctoolchain/usr/bin/../include/c++/v1/string:1752:59
	leaq	-255(%rbp), %rax
Ltmp693:
	.loc	5 1758 17               ## /Applications/Xcode.app/Contents/Developer/Toolchains/XcodeDefault.xctoolchain/usr/bin/../include/c++/v1/string:1758:17
	cmoveq	%rax, %rdx
Ltmp694:
	##DEBUG_VALUE: __to_raw_pointer<const char>:__p <- RDX
	movb	$1, %al
Ltmp695:
	.loc	16 377 5                ## /Users/nobuhiro/Documents/source/openframeworks/of_v0.9.0_osx_release/apps/myApps/Gusha_Entrance/src/Light.cpp:377:5
	leaq	L_.str40(%rip), %rdi
Ltmp696:
	callq	_printf
Ltmp697:
	##DEBUG_VALUE: __get_long_pointer:this <- [R13+0]
	##DEBUG_VALUE: __is_long:this <- [R13+0]
	##DEBUG_VALUE: __get_pointer:this <- [R13+0]
	##DEBUG_VALUE: data:this <- [R13+0]
	##DEBUG_VALUE: c_str:this <- [R13+0]
	##DEBUG_VALUE: Name_FixIdOrder <- [R13+0]
	.loc	16 378 4                ## /Users/nobuhiro/Documents/source/openframeworks/of_v0.9.0_osx_release/apps/myApps/Gusha_Entrance/src/Light.cpp:378:4
	movq	%r13, %rdi
	callq	__ZNSt3__112basic_stringIcNS_11char_traitsIcEENS_9allocatorIcEEED1Ev
Ltmp698:
	##DEBUG_VALUE: __get_long_pointer:this <- undef
	##DEBUG_VALUE: __is_long:this <- undef
	##DEBUG_VALUE: __get_pointer:this <- undef
	##DEBUG_VALUE: data:this <- undef
	##DEBUG_VALUE: c_str:this <- undef
	leaq	-224(%rbp), %rdi
	callq	__ZNSt3__112basic_stringIcNS_11char_traitsIcEENS_9allocatorIcEEED1Ev
Ltmp699:
LBB13_32:                               ##   in Loop: Header=BB13_28 Depth=2
	##DEBUG_VALUE: check_DesignTable:this <- RDI
	.loc	16 369 3                ## /Users/nobuhiro/Documents/source/openframeworks/of_v0.9.0_osx_release/apps/myApps/Gusha_Entrance/src/Light.cpp:369:3
	incq	%r15
	.loc	16 369 20 is_stmt 0     ## /Users/nobuhiro/Documents/source/openframeworks/of_v0.9.0_osx_release/apps/myApps/Gusha_Entrance/src/Light.cpp:369:20
Ltmp700:
	addq	$24, %r14
	cmpq	%r12, %r15
	jl	LBB13_28
Ltmp701:
LBB13_33:                               ## %._crit_edge55
                                        ##   in Loop: Header=BB13_19 Depth=1
	##DEBUG_VALUE: check_DesignTable:this <- RDI
	##DEBUG_VALUE: i <- 0
	##DEBUG_VALUE: TotalWeight <- 0.000000e+00
	movl	$10, %edi
Ltmp702:
	.loc	16 380 3 is_stmt 1      ## /Users/nobuhiro/Documents/source/openframeworks/of_v0.9.0_osx_release/apps/myApps/Gusha_Entrance/src/Light.cpp:380:3
	callq	_putchar
Ltmp703:
	.loc	16 361 2                ## /Users/nobuhiro/Documents/source/openframeworks/of_v0.9.0_osx_release/apps/myApps/Gusha_Entrance/src/Light.cpp:361:2
	incq	%rbx
	addq	$720, -280(%rbp)        ## 8-byte Folded Spill
                                        ## imm = 0x2D0
	addq	$720, -288(%rbp)        ## 8-byte Folded Spill
                                        ## imm = 0x2D0
	addq	$720, -272(%rbp)        ## 8-byte Folded Spill
                                        ## imm = 0x2D0
	.loc	16 361 19 is_stmt 0     ## /Users/nobuhiro/Documents/source/openframeworks/of_v0.9.0_osx_release/apps/myApps/Gusha_Entrance/src/Light.cpp:361:19
Ltmp704:
	cmpq	$5, %rbx
	jl	LBB13_19
Ltmp705:
## BB#34:
	##DEBUG_VALUE: check_DesignTable:this <- RDI
	.loc	16 385 2 is_stmt 1      ## /Users/nobuhiro/Documents/source/openframeworks/of_v0.9.0_osx_release/apps/myApps/Gusha_Entrance/src/Light.cpp:385:2
	leaq	L_str68(%rip), %rdi
Ltmp706:
	callq	_puts
	.loc	16 389 2                ## /Users/nobuhiro/Documents/source/openframeworks/of_v0.9.0_osx_release/apps/myApps/Gusha_Entrance/src/Light.cpp:389:2
	leaq	L_str69(%rip), %rdi
	callq	_puts
	.loc	16 393 2                ## /Users/nobuhiro/Documents/source/openframeworks/of_v0.9.0_osx_release/apps/myApps/Gusha_Entrance/src/Light.cpp:393:2
	leaq	L_str70(%rip), %rdi
	callq	_puts
	movq	_T_Color@GOTPCREL(%rip), %rax
	leaq	64(%rax), %rbx
Ltmp707:
	##DEBUG_VALUE: ColTheme <- 0
	movq	%rax, %r14
	xorl	%r15d, %r15d
	.align	4, 0x90
LBB13_35:                               ## =>This Loop Header: Depth=1
                                        ##     Child Loop BB13_43 Depth 2
                                        ##       Child Loop BB13_46 Depth 3
                                        ##       Child Loop BB13_49 Depth 3
                                        ##       Child Loop BB13_51 Depth 3
Ltmp708:
	##DEBUG_VALUE: check_DesignTable:this <- RDI
	##DEBUG_VALUE: ColTheme <- 0
	.loc	16 395 3                ## /Users/nobuhiro/Documents/source/openframeworks/of_v0.9.0_osx_release/apps/myApps/Gusha_Entrance/src/Light.cpp:395:3
	movq	%r15, -272(%rbp)        ## 8-byte Spill
	cmpl	$2, %r15d
	je	LBB13_40
Ltmp709:
## BB#36:                               ##   in Loop: Header=BB13_35 Depth=1
	##DEBUG_VALUE: check_DesignTable:this <- RDI
	cmpl	$1, %r15d
	jne	LBB13_37
Ltmp710:
## BB#39:                               ##   in Loop: Header=BB13_35 Depth=1
	##DEBUG_VALUE: check_DesignTable:this <- RDI
	.loc	16 400 5                ## /Users/nobuhiro/Documents/source/openframeworks/of_v0.9.0_osx_release/apps/myApps/Gusha_Entrance/src/Light.cpp:400:5
	leaq	L_str72(%rip), %rdi
Ltmp711:
	jmp	LBB13_41
	.align	4, 0x90
LBB13_40:                               ##   in Loop: Header=BB13_35 Depth=1
Ltmp712:
	##DEBUG_VALUE: check_DesignTable:this <- RDI
	##DEBUG_VALUE: ColTheme <- 0
	.loc	16 403 5                ## /Users/nobuhiro/Documents/source/openframeworks/of_v0.9.0_osx_release/apps/myApps/Gusha_Entrance/src/Light.cpp:403:5
	leaq	L_str71(%rip), %rdi
Ltmp713:
LBB13_41:                               ## %.preheader36
                                        ##   in Loop: Header=BB13_35 Depth=1
	callq	_puts
	movq	%rbx, -280(%rbp)        ## 8-byte Spill
	movq	%r14, %r12
	movq	%r12, -288(%rbp)        ## 8-byte Spill
	jmp	LBB13_42
	.align	4, 0x90
LBB13_37:                               ##   in Loop: Header=BB13_35 Depth=1
Ltmp714:
	##DEBUG_VALUE: check_DesignTable:this <- RDI
	testl	%r15d, %r15d
	movq	%rbx, -280(%rbp)        ## 8-byte Spill
	movq	%r14, %r12
	movq	%r12, -288(%rbp)        ## 8-byte Spill
	movl	$0, %r13d
	jne	LBB13_43
Ltmp715:
## BB#38:                               ##   in Loop: Header=BB13_35 Depth=1
	##DEBUG_VALUE: check_DesignTable:this <- RDI
	.loc	16 397 5                ## /Users/nobuhiro/Documents/source/openframeworks/of_v0.9.0_osx_release/apps/myApps/Gusha_Entrance/src/Light.cpp:397:5
	leaq	L_str73(%rip), %rdi
Ltmp716:
	callq	_puts
	movq	-280(%rbp), %rbx        ## 8-byte Reload
	movq	-288(%rbp), %r12        ## 8-byte Reload
Ltmp717:
	.align	4, 0x90
LBB13_42:                               ## %.preheader36
                                        ##   in Loop: Header=BB13_35 Depth=1
	xorl	%r13d, %r13d
	.align	4, 0x90
LBB13_43:                               ## %.preheader36
                                        ##   Parent Loop BB13_35 Depth=1
                                        ## =>  This Loop Header: Depth=2
                                        ##       Child Loop BB13_46 Depth 3
                                        ##       Child Loop BB13_49 Depth 3
                                        ##       Child Loop BB13_51 Depth 3
Ltmp718:
	##DEBUG_VALUE: check_DesignTable:this <- RDI
	##DEBUG_VALUE: ColTheme <- 0
	xorl	%eax, %eax
	.loc	16 408 4                ## /Users/nobuhiro/Documents/source/openframeworks/of_v0.9.0_osx_release/apps/myApps/Gusha_Entrance/src/Light.cpp:408:4
Ltmp719:
	leaq	L_.str39(%rip), %rdi
Ltmp720:
	movl	%r13d, %esi
	callq	_printf
	.loc	16 410 57               ## /Users/nobuhiro/Documents/source/openframeworks/of_v0.9.0_osx_release/apps/myApps/Gusha_Entrance/src/Light.cpp:410:57
	imulq	$2160, %r13, %rax       ## imm = 0x870
	imulq	$10800, %r15, %rdi      ## imm = 0x2A30
	addq	_T_Color@GOTPCREL(%rip), %rdi
	addq	%rax, %rdi
	movl	$30, %esi
	.loc	16 410 24 is_stmt 0     ## /Users/nobuhiro/Documents/source/openframeworks/of_v0.9.0_osx_release/apps/myApps/Gusha_Entrance/src/Light.cpp:410:24
	callq	__ZN12L_TABLE_UTIL18Count_NumCandidateEP8SEL__COLi
	movl	%eax, %r14d
Ltmp721:
	##DEBUG_VALUE: j <- 0
	##DEBUG_VALUE: TotalWeight <- 0.000000e+00
	##DEBUG_VALUE: NumCandidates <- R14D
	.loc	16 412 4 is_stmt 1      ## /Users/nobuhiro/Documents/source/openframeworks/of_v0.9.0_osx_release/apps/myApps/Gusha_Entrance/src/Light.cpp:412:4
	testl	%r14d, %r14d
	jle	LBB13_54
Ltmp722:
## BB#44:                               ## %.lr.ph
                                        ##   in Loop: Header=BB13_43 Depth=2
	##DEBUG_VALUE: check_DesignTable:this <- RDI
	##DEBUG_VALUE: ColTheme <- 0
	##DEBUG_VALUE: NumCandidates <- R14D
	##DEBUG_VALUE: TotalWeight <- 0.000000e+00
	##DEBUG_VALUE: j <- 0
	leal	-1(%r14), %ecx
	xorpd	%xmm9, %xmm9
	testb	$3, %r14b
	movl	$0, %eax
	je	LBB13_47
Ltmp723:
## BB#45:                               ## %.preheader111
                                        ##   in Loop: Header=BB13_43 Depth=2
	##DEBUG_VALUE: check_DesignTable:this <- RDI
	movq	%r14, %rdx
	andq	$3, %rdx
	xorpd	%xmm9, %xmm9
	movq	%r12, %rsi
	xorl	%eax, %eax
Ltmp724:
	.align	4, 0x90
LBB13_46:                               ##   Parent Loop BB13_35 Depth=1
                                        ##     Parent Loop BB13_43 Depth=2
                                        ## =>    This Inner Loop Header: Depth=3
	##DEBUG_VALUE: check_DesignTable:this <- RDI
	.loc	16 413 20               ## /Users/nobuhiro/Documents/source/openframeworks/of_v0.9.0_osx_release/apps/myApps/Gusha_Entrance/src/Light.cpp:413:20
	xorps	%xmm0, %xmm0
	cvtsi2sdl	(%rsi), %xmm0
	.loc	16 413 17 is_stmt 0     ## /Users/nobuhiro/Documents/source/openframeworks/of_v0.9.0_osx_release/apps/myApps/Gusha_Entrance/src/Light.cpp:413:17
	addsd	%xmm0, %xmm9
Ltmp725:
	##DEBUG_VALUE: TotalWeight <- XMM9
	.loc	16 412 4 is_stmt 1      ## /Users/nobuhiro/Documents/source/openframeworks/of_v0.9.0_osx_release/apps/myApps/Gusha_Entrance/src/Light.cpp:412:4
	incq	%rax
	addq	$72, %rsi
	cmpl	%eax, %edx
	jne	LBB13_46
Ltmp726:
LBB13_47:                               ## %.lr.ph.split
                                        ##   in Loop: Header=BB13_43 Depth=2
	##DEBUG_VALUE: check_DesignTable:this <- RDI
	cmpl	$3, %ecx
	jb	LBB13_50
Ltmp727:
## BB#48:                               ## %.lr.ph.split.split
                                        ##   in Loop: Header=BB13_43 Depth=2
	##DEBUG_VALUE: check_DesignTable:this <- RDI
	leaq	(,%rax,8), %rcx
	leaq	(%rcx,%rcx,8), %rcx
	leal	3(%r14), %edx
	leal	3(%rax), %esi
	subl	%esi, %edx
Ltmp728:
	.align	4, 0x90
LBB13_49:                               ##   Parent Loop BB13_35 Depth=1
                                        ##     Parent Loop BB13_43 Depth=2
                                        ## =>    This Inner Loop Header: Depth=3
	##DEBUG_VALUE: check_DesignTable:this <- RDI
	.loc	16 413 20               ## /Users/nobuhiro/Documents/source/openframeworks/of_v0.9.0_osx_release/apps/myApps/Gusha_Entrance/src/Light.cpp:413:20
	xorps	%xmm0, %xmm0
	cvtsi2sdl	(%r12,%rcx), %xmm0
	.loc	16 413 17 is_stmt 0     ## /Users/nobuhiro/Documents/source/openframeworks/of_v0.9.0_osx_release/apps/myApps/Gusha_Entrance/src/Light.cpp:413:17
	addsd	%xmm9, %xmm0
Ltmp729:
	##DEBUG_VALUE: TotalWeight <- XMM0
	.loc	16 413 20               ## /Users/nobuhiro/Documents/source/openframeworks/of_v0.9.0_osx_release/apps/myApps/Gusha_Entrance/src/Light.cpp:413:20
	xorps	%xmm1, %xmm1
	cvtsi2sdl	72(%r12,%rcx), %xmm1
	.loc	16 413 17               ## /Users/nobuhiro/Documents/source/openframeworks/of_v0.9.0_osx_release/apps/myApps/Gusha_Entrance/src/Light.cpp:413:17
	addsd	%xmm0, %xmm1
	.loc	16 413 20               ## /Users/nobuhiro/Documents/source/openframeworks/of_v0.9.0_osx_release/apps/myApps/Gusha_Entrance/src/Light.cpp:413:20
	xorps	%xmm0, %xmm0
Ltmp730:
	cvtsi2sdl	144(%r12,%rcx), %xmm0
	.loc	16 413 17               ## /Users/nobuhiro/Documents/source/openframeworks/of_v0.9.0_osx_release/apps/myApps/Gusha_Entrance/src/Light.cpp:413:17
	addsd	%xmm1, %xmm0
	.loc	16 413 20               ## /Users/nobuhiro/Documents/source/openframeworks/of_v0.9.0_osx_release/apps/myApps/Gusha_Entrance/src/Light.cpp:413:20
	xorps	%xmm9, %xmm9
	cvtsi2sdl	216(%r12,%rcx), %xmm9
	.loc	16 413 17               ## /Users/nobuhiro/Documents/source/openframeworks/of_v0.9.0_osx_release/apps/myApps/Gusha_Entrance/src/Light.cpp:413:17
	addsd	%xmm0, %xmm9
Ltmp731:
	.loc	16 412 4 is_stmt 1      ## /Users/nobuhiro/Documents/source/openframeworks/of_v0.9.0_osx_release/apps/myApps/Gusha_Entrance/src/Light.cpp:412:4
	addq	$4, %rax
	addq	$288, %rcx              ## imm = 0x120
	addl	$-4, %edx
	jne	LBB13_49
Ltmp732:
LBB13_50:                               ## %.preheader
                                        ##   in Loop: Header=BB13_43 Depth=2
	##DEBUG_VALUE: check_DesignTable:this <- RDI
	movsd	%xmm9, -264(%rbp)       ## 8-byte Spill
	testl	%r14d, %r14d
	movq	%rbx, %r15
	jle	LBB13_54
Ltmp733:
	.align	4, 0x90
LBB13_51:                               ##   Parent Loop BB13_35 Depth=1
                                        ##     Parent Loop BB13_43 Depth=2
                                        ## =>    This Inner Loop Header: Depth=3
	##DEBUG_VALUE: check_DesignTable:this <- RDI
	.loc	16 416 36               ## /Users/nobuhiro/Documents/source/openframeworks/of_v0.9.0_osx_release/apps/myApps/Gusha_Entrance/src/Light.cpp:416:36
	movl	-64(%r15), %eax
Ltmp734:
	.loc	16 416 8 is_stmt 0      ## /Users/nobuhiro/Documents/source/openframeworks/of_v0.9.0_osx_release/apps/myApps/Gusha_Entrance/src/Light.cpp:416:8
	testl	%eax, %eax
	jle	LBB13_53
Ltmp735:
## BB#52:                               ##   in Loop: Header=BB13_51 Depth=3
	##DEBUG_VALUE: check_DesignTable:this <- RDI
	.loc	16 417 21 is_stmt 1     ## /Users/nobuhiro/Documents/source/openframeworks/of_v0.9.0_osx_release/apps/myApps/Gusha_Entrance/src/Light.cpp:417:21
	movsd	-56(%r15), %xmm1        ## xmm1 = mem[0],zero
Ltmp736:
	##DEBUG_VALUE: col_H [bit_piece offset=0 size=64] <- XMM1
	movsd	-48(%r15), %xmm2        ## xmm2 = mem[0],zero
Ltmp737:
	##DEBUG_VALUE: col_H [bit_piece offset=64 size=64] <- XMM2
	movsd	-40(%r15), %xmm3        ## xmm3 = mem[0],zero
Ltmp738:
	##DEBUG_VALUE: col_H [bit_piece offset=128 size=64] <- XMM3
	movsd	-32(%r15), %xmm4        ## xmm4 = mem[0],zero
Ltmp739:
	##DEBUG_VALUE: col_H [bit_piece offset=192 size=64] <- XMM4
	.loc	16 418 21               ## /Users/nobuhiro/Documents/source/openframeworks/of_v0.9.0_osx_release/apps/myApps/Gusha_Entrance/src/Light.cpp:418:21
	movsd	-24(%r15), %xmm5        ## xmm5 = mem[0],zero
Ltmp740:
	##DEBUG_VALUE: col_L [bit_piece offset=0 size=64] <- XMM5
	movsd	-16(%r15), %xmm6        ## xmm6 = mem[0],zero
Ltmp741:
	##DEBUG_VALUE: col_L [bit_piece offset=64 size=64] <- XMM6
	movsd	-8(%r15), %xmm7         ## xmm7 = mem[0],zero
Ltmp742:
	##DEBUG_VALUE: col_L [bit_piece offset=128 size=64] <- XMM7
	movsd	(%r15), %xmm8           ## xmm8 = mem[0],zero
Ltmp743:
	##DEBUG_VALUE: col_L [bit_piece offset=192 size=64] <- XMM8
	.loc	16 420 91               ## /Users/nobuhiro/Documents/source/openframeworks/of_v0.9.0_osx_release/apps/myApps/Gusha_Entrance/src/Light.cpp:420:91
	imull	$100, %eax, %eax
	.loc	16 420 87 is_stmt 0     ## /Users/nobuhiro/Documents/source/openframeworks/of_v0.9.0_osx_release/apps/myApps/Gusha_Entrance/src/Light.cpp:420:87
	cvtsi2sdl	%eax, %xmm0
	.loc	16 420 124              ## /Users/nobuhiro/Documents/source/openframeworks/of_v0.9.0_osx_release/apps/myApps/Gusha_Entrance/src/Light.cpp:420:124
	divsd	%xmm9, %xmm0
	.loc	16 420 6                ## /Users/nobuhiro/Documents/source/openframeworks/of_v0.9.0_osx_release/apps/myApps/Gusha_Entrance/src/Light.cpp:420:6
	movsd	%xmm8, (%rsp)
	movb	$8, %al
	leaq	L_.str47(%rip), %rdi
Ltmp744:
	callq	_printf
	movsd	-264(%rbp), %xmm9       ## 8-byte Reload
                                        ## xmm9 = mem[0],zero
Ltmp745:
LBB13_53:                               ##   in Loop: Header=BB13_51 Depth=3
	##DEBUG_VALUE: check_DesignTable:this <- RDI
	.loc	16 415 4 is_stmt 1      ## /Users/nobuhiro/Documents/source/openframeworks/of_v0.9.0_osx_release/apps/myApps/Gusha_Entrance/src/Light.cpp:415:4
	addq	$72, %r15
	decl	%r14d
	jne	LBB13_51
Ltmp746:
LBB13_54:                               ## %._crit_edge
                                        ##   in Loop: Header=BB13_43 Depth=2
	##DEBUG_VALUE: check_DesignTable:this <- RDI
	##DEBUG_VALUE: ColTheme <- 0
	##DEBUG_VALUE: TotalWeight <- 0.000000e+00
	movl	$10, %edi
Ltmp747:
	.loc	16 423 4                ## /Users/nobuhiro/Documents/source/openframeworks/of_v0.9.0_osx_release/apps/myApps/Gusha_Entrance/src/Light.cpp:423:4
	callq	_putchar
Ltmp748:
	.loc	16 407 3                ## /Users/nobuhiro/Documents/source/openframeworks/of_v0.9.0_osx_release/apps/myApps/Gusha_Entrance/src/Light.cpp:407:3
	incq	%r13
	addq	$2160, %r12             ## imm = 0x870
	addq	$2160, %rbx             ## imm = 0x870
	cmpq	$5, %r13
	movq	-272(%rbp), %r15        ## 8-byte Reload
	jne	LBB13_43
Ltmp749:
## BB#55:                               ##   in Loop: Header=BB13_35 Depth=1
	##DEBUG_VALUE: check_DesignTable:this <- RDI
	##DEBUG_VALUE: ColTheme <- 0
	.loc	16 394 2                ## /Users/nobuhiro/Documents/source/openframeworks/of_v0.9.0_osx_release/apps/myApps/Gusha_Entrance/src/Light.cpp:394:2
	incq	%r15
	movq	-288(%rbp), %r14        ## 8-byte Reload
	addq	$10800, %r14            ## imm = 0x2A30
	movq	-280(%rbp), %rbx        ## 8-byte Reload
	addq	$10800, %rbx            ## imm = 0x2A30
	cmpq	$4, %r15
	jne	LBB13_35
Ltmp750:
## BB#56:
	.loc	16 426 1                ## /Users/nobuhiro/Documents/source/openframeworks/of_v0.9.0_osx_release/apps/myApps/Gusha_Entrance/src/Light.cpp:426:1
	addq	$264, %rsp              ## imm = 0x108
Ltmp751:
	##DEBUG_VALUE: check_DesignTable:this <- RDI
	popq	%rbx
	popq	%r12
	popq	%r13
	popq	%r14
	popq	%r15
	popq	%rbp
	retq
Ltmp752:
LBB13_57:
Ltmp572:
Ltmp753:
	##DEBUG_VALUE: check_DesignTable:this <- RDI
	movq	%rax, %rbx
	leaq	-96(%rbp), %rdi
Ltmp754:
	##DEBUG_VALUE: Name_FixIdOrder <- [RDI+0]
	.loc	16 353 4                ## /Users/nobuhiro/Documents/source/openframeworks/of_v0.9.0_osx_release/apps/myApps/Gusha_Entrance/src/Light.cpp:353:4
	callq	__ZNSt3__112basic_stringIcNS_11char_traitsIcEENS_9allocatorIcEEED1Ev
	leaq	-64(%rbp), %rdi
Ltmp755:
	jmp	LBB13_58
Ltmp756:
LBB13_70:
Ltmp577:
Ltmp757:
	##DEBUG_VALUE: check_DesignTable:this <- RDI
	movq	%rax, %rbx
	leaq	-256(%rbp), %rdi
Ltmp758:
	##DEBUG_VALUE: Name_FixIdOrder <- [RDI+0]
	.loc	16 378 4                ## /Users/nobuhiro/Documents/source/openframeworks/of_v0.9.0_osx_release/apps/myApps/Gusha_Entrance/src/Light.cpp:378:4
	callq	__ZNSt3__112basic_stringIcNS_11char_traitsIcEENS_9allocatorIcEEED1Ev
	leaq	-224(%rbp), %rdi
Ltmp759:
LBB13_58:
	##DEBUG_VALUE: Name_Func <- [RDI+0]
	.loc	16 353 4                ## /Users/nobuhiro/Documents/source/openframeworks/of_v0.9.0_osx_release/apps/myApps/Gusha_Entrance/src/Light.cpp:353:4
	callq	__ZNSt3__112basic_stringIcNS_11char_traitsIcEENS_9allocatorIcEEED1Ev
Ltmp760:
	##DEBUG_VALUE: check_DesignTable:this <- RDI
	movq	%rbx, %rdi
Ltmp761:
	callq	__Unwind_Resume
Ltmp762:
LBB13_1:
	##DEBUG_VALUE: check_DesignTable:this <- RDI
	##DEBUG_VALUE: i <- 0
	.loc	16 317 4                ## /Users/nobuhiro/Documents/source/openframeworks/of_v0.9.0_osx_release/apps/myApps/Gusha_Entrance/src/Light.cpp:317:4
	leaq	L_.str36(%rip), %rdi
Ltmp763:
	xorl	%eax, %eax
	callq	_printf
	.loc	16 318 4                ## /Users/nobuhiro/Documents/source/openframeworks/of_v0.9.0_osx_release/apps/myApps/Gusha_Entrance/src/Light.cpp:318:4
	leaq	L_.str18(%rip), %rdi
	leaq	L_.str19(%rip), %rsi
	movl	$318, %edx              ## imm = 0x13E
	jmp	LBB13_2
Ltmp764:
LBB13_69:
	##DEBUG_VALUE: check_DesignTable:this <- RDI
	##DEBUG_VALUE: i <- 0
	.loc	16 328 4                ## /Users/nobuhiro/Documents/source/openframeworks/of_v0.9.0_osx_release/apps/myApps/Gusha_Entrance/src/Light.cpp:328:4
	leaq	L_.str36(%rip), %rdi
Ltmp765:
	xorl	%eax, %eax
	callq	_printf
	.loc	16 329 4                ## /Users/nobuhiro/Documents/source/openframeworks/of_v0.9.0_osx_release/apps/myApps/Gusha_Entrance/src/Light.cpp:329:4
	leaq	L_.str18(%rip), %rdi
	leaq	L_.str19(%rip), %rsi
	movl	$329, %edx              ## imm = 0x149
Ltmp766:
LBB13_2:
	xorl	%eax, %eax
	.loc	16 318 4                ## /Users/nobuhiro/Documents/source/openframeworks/of_v0.9.0_osx_release/apps/myApps/Gusha_Entrance/src/Light.cpp:318:4
Ltmp767:
	callq	_printf
	movl	$1, %edi
	.loc	16 318 17 is_stmt 0     ## /Users/nobuhiro/Documents/source/openframeworks/of_v0.9.0_osx_release/apps/myApps/Gusha_Entrance/src/Light.cpp:318:17
	callq	_exit
Ltmp768:
Lfunc_end13:
	.cfi_endproc
	.section	__TEXT,__gcc_except_tab
	.align	2
GCC_except_table13:
Lexception13:
	.byte	255                     ## @LPStart Encoding = omit
	.byte	155                     ## @TType Encoding = indirect pcrel sdata4
	.asciz	"\303\200"              ## @TType base offset
	.byte	3                       ## Call site Encoding = udata4
	.byte	65                      ## Call site table length
Lset57 = Lfunc_begin13-Lfunc_begin13    ## >> Call Site 1 <<
	.long	Lset57
Lset58 = Ltmp568-Lfunc_begin13          ##   Call between Lfunc_begin13 and Ltmp568
	.long	Lset58
	.long	0                       ##     has no landing pad
	.byte	0                       ##   On action: cleanup
Lset59 = Ltmp568-Lfunc_begin13          ## >> Call Site 2 <<
	.long	Lset59
Lset60 = Ltmp571-Ltmp568                ##   Call between Ltmp568 and Ltmp571
	.long	Lset60
Lset61 = Ltmp572-Lfunc_begin13          ##     jumps to Ltmp572
	.long	Lset61
	.byte	0                       ##   On action: cleanup
Lset62 = Ltmp571-Lfunc_begin13          ## >> Call Site 3 <<
	.long	Lset62
Lset63 = Ltmp573-Ltmp571                ##   Call between Ltmp571 and Ltmp573
	.long	Lset63
	.long	0                       ##     has no landing pad
	.byte	0                       ##   On action: cleanup
Lset64 = Ltmp573-Lfunc_begin13          ## >> Call Site 4 <<
	.long	Lset64
Lset65 = Ltmp576-Ltmp573                ##   Call between Ltmp573 and Ltmp576
	.long	Lset65
Lset66 = Ltmp577-Lfunc_begin13          ##     jumps to Ltmp577
	.long	Lset66
	.byte	0                       ##   On action: cleanup
Lset67 = Ltmp576-Lfunc_begin13          ## >> Call Site 5 <<
	.long	Lset67
Lset68 = Lfunc_end13-Ltmp576            ##   Call between Ltmp576 and Lfunc_end13
	.long	Lset68
	.long	0                       ##     has no landing pad
	.byte	0                       ##   On action: cleanup
	.align	2

	.section	__TEXT,__literal16,16byte_literals
	.align	4
LCPI14_0:
	.quad	4607182418800017408     ## double 1.000000e+00
	.quad	4607182418800017408     ## double 1.000000e+00
	.section	__TEXT,__text,regular,pure_instructions
	.globl	__ZN5LIGHT5setupEii
	.align	4, 0x90
__ZN5LIGHT5setupEii:                    ## @_ZN5LIGHT5setupEii
Lfunc_begin14:
	.loc	16 464 0 is_stmt 1      ## /Users/nobuhiro/Documents/source/openframeworks/of_v0.9.0_osx_release/apps/myApps/Gusha_Entrance/src/Light.cpp:464:0
	.cfi_startproc
## BB#0:
	pushq	%rbp
Ltmp769:
	.cfi_def_cfa_offset 16
Ltmp770:
	.cfi_offset %rbp, -16
	movq	%rsp, %rbp
Ltmp771:
	.cfi_def_cfa_register %rbp
	pushq	%r15
	pushq	%r14
	pushq	%r13
	pushq	%r12
	pushq	%rbx
	pushq	%rax
Ltmp772:
	.cfi_offset %rbx, -56
Ltmp773:
	.cfi_offset %r12, -48
Ltmp774:
	.cfi_offset %r13, -40
Ltmp775:
	.cfi_offset %r14, -32
Ltmp776:
	.cfi_offset %r15, -24
	##DEBUG_VALUE: setup:this <- RDI
	##DEBUG_VALUE: setup:State_BandGain <- ESI
	##DEBUG_VALUE: setup:State_d2_BandGain3 <- EDX
	movl	%edx, %r14d
Ltmp777:
	##DEBUG_VALUE: setup:State_d2_BandGain3 <- R14D
	movl	%esi, %r15d
Ltmp778:
	##DEBUG_VALUE: setup:State_BandGain <- R15D
	movq	%rdi, %rbx
Ltmp779:
	##DEBUG_VALUE: setup:this <- RBX
	.loc	16 468 5 prologue_end   ## /Users/nobuhiro/Documents/source/openframeworks/of_v0.9.0_osx_release/apps/myApps/Gusha_Entrance/src/Light.cpp:468:5
	leaq	L_.str48(%rip), %rsi
	xorl	%edx, %edx
	xorl	%ecx, %ecx
                                        ## kill: RDI<def> RBX<kill>
	callq	__ZN9ofxArtnet5setupEPKcii
	.loc	16 472 5                ## /Users/nobuhiro/Documents/source/openframeworks/of_v0.9.0_osx_release/apps/myApps/Gusha_Entrance/src/Light.cpp:472:5
	leaq	480(%rbx), %r12
	movq	%r12, %rdi
	callq	__ZN13ofxUDPManager6CreateEv
	.loc	16 473 2                ## /Users/nobuhiro/Documents/source/openframeworks/of_v0.9.0_osx_release/apps/myApps/Gusha_Entrance/src/Light.cpp:473:2
	leaq	L_.str49(%rip), %rsi
	movl	$12348, %edx            ## imm = 0x303C
	movq	%r12, %rdi
	callq	__ZN13ofxUDPManager7ConnectEPKct
	movl	$1, %esi
	.loc	16 474 2                ## /Users/nobuhiro/Documents/source/openframeworks/of_v0.9.0_osx_release/apps/myApps/Gusha_Entrance/src/Light.cpp:474:2
	movq	%r12, %rdi
	callq	__ZN13ofxUDPManager14SetNonBlockingEb
Ltmp780:
	##DEBUG_VALUE: Set_SizeOfBlocks:NumBlocks <- 5
	##DEBUG_VALUE: i <- 0
	.loc	34 653 61               ## /Applications/Xcode.app/Contents/Developer/Toolchains/XcodeDefault.xctoolchain/usr/bin/../include/c++/v1/vector:653:61
	movq	920(%rbx), %rcx
Ltmp781:
	##DEBUG_VALUE: resize:__sz <- 5
	.loc	34 653 46 is_stmt 0     ## /Applications/Xcode.app/Contents/Developer/Toolchains/XcodeDefault.xctoolchain/usr/bin/../include/c++/v1/vector:653:46
	movq	928(%rbx), %rax
	.loc	34 653 53               ## /Applications/Xcode.app/Contents/Developer/Toolchains/XcodeDefault.xctoolchain/usr/bin/../include/c++/v1/vector:653:53
	movq	%rax, %rdx
	subq	%rcx, %rdx
	sarq	$2, %rdx
Ltmp782:
	##DEBUG_VALUE: resize:__cs <- RDX
	.loc	34 1997 9 is_stmt 1     ## /Applications/Xcode.app/Contents/Developer/Toolchains/XcodeDefault.xctoolchain/usr/bin/../include/c++/v1/vector:1997:9
	cmpq	$4, %rdx
Ltmp783:
	##DEBUG_VALUE: size:this <- RDI
	ja	LBB14_2
Ltmp784:
## BB#1:
	##DEBUG_VALUE: setup:this <- RBX
	##DEBUG_VALUE: setup:State_BandGain <- R15D
	##DEBUG_VALUE: setup:State_d2_BandGain3 <- R14D
	##DEBUG_VALUE: i <- 0
	##DEBUG_VALUE: Set_SizeOfBlocks:NumBlocks <- 5
	##DEBUG_VALUE: resize:__sz <- 5
	##DEBUG_VALUE: resize:__cs <- RDX
	.loc	18 107 3                ## /Users/nobuhiro/Documents/source/openframeworks/of_v0.9.0_osx_release/apps/myApps/Gusha_Entrance/src/L_Block.h:107:3
	leaq	920(%rbx), %rdi
Ltmp785:
	##DEBUG_VALUE: resize:this <- RDI
	##DEBUG_VALUE: __destruct_at_end:this <- RDI
	##DEBUG_VALUE: size:this <- RDI
	##DEBUG_VALUE: size:this <- RDI
	movl	$5, %esi
	.loc	34 1998 29              ## /Applications/Xcode.app/Contents/Developer/Toolchains/XcodeDefault.xctoolchain/usr/bin/../include/c++/v1/vector:1998:29
Ltmp786:
	subq	%rdx, %rsi
	.loc	34 1998 9 is_stmt 0     ## /Applications/Xcode.app/Contents/Developer/Toolchains/XcodeDefault.xctoolchain/usr/bin/../include/c++/v1/vector:1998:9
	callq	__ZNSt3__16vectorIiNS_9allocatorIiEEE8__appendEm
	jmp	LBB14_5
Ltmp787:
LBB14_2:
	##DEBUG_VALUE: setup:this <- RBX
	##DEBUG_VALUE: setup:State_BandGain <- R15D
	##DEBUG_VALUE: setup:State_d2_BandGain3 <- R14D
	##DEBUG_VALUE: i <- 0
	##DEBUG_VALUE: Set_SizeOfBlocks:NumBlocks <- 5
	##DEBUG_VALUE: resize:__sz <- 5
	##DEBUG_VALUE: resize:__cs <- RDX
	.loc	34 1999 14 is_stmt 1    ## /Applications/Xcode.app/Contents/Developer/Toolchains/XcodeDefault.xctoolchain/usr/bin/../include/c++/v1/vector:1999:14
	cmpq	$6, %rdx
	jb	LBB14_5
Ltmp788:
## BB#3:
	##DEBUG_VALUE: setup:this <- RBX
	##DEBUG_VALUE: setup:State_BandGain <- R15D
	##DEBUG_VALUE: setup:State_d2_BandGain3 <- R14D
	##DEBUG_VALUE: i <- 0
	##DEBUG_VALUE: Set_SizeOfBlocks:NumBlocks <- 5
	##DEBUG_VALUE: resize:__sz <- 5
	.loc	34 2000 48              ## /Applications/Xcode.app/Contents/Developer/Toolchains/XcodeDefault.xctoolchain/usr/bin/../include/c++/v1/vector:2000:48
	addq	$20, %rcx
Ltmp789:
	##DEBUG_VALUE: __destruct_at_end:__new_last <- RCX
	##DEBUG_VALUE: __destruct_at_end:__new_last <- RCX
	.loc	34 443 23               ## /Applications/Xcode.app/Contents/Developer/Toolchains/XcodeDefault.xctoolchain/usr/bin/../include/c++/v1/vector:443:23
	cmpq	%rcx, %rax
	je	LBB14_5
Ltmp790:
## BB#4:                                ## %.lr.ph.i.i.i.i
	##DEBUG_VALUE: setup:this <- RBX
	##DEBUG_VALUE: setup:State_BandGain <- R15D
	##DEBUG_VALUE: setup:State_d2_BandGain3 <- R14D
	##DEBUG_VALUE: i <- 0
	##DEBUG_VALUE: Set_SizeOfBlocks:NumBlocks <- 5
	##DEBUG_VALUE: resize:__sz <- 5
	##DEBUG_VALUE: __destruct_at_end:__new_last <- RCX
	##DEBUG_VALUE: __destruct_at_end:__new_last <- RCX
	.loc	34 818 9                ## /Applications/Xcode.app/Contents/Developer/Toolchains/XcodeDefault.xctoolchain/usr/bin/../include/c++/v1/vector:818:9
	leaq	-4(%rax), %rdx
	subq	%rcx, %rdx
	notq	%rdx
	andq	$-4, %rdx
	addq	%rax, %rdx
	.loc	34 444 68               ## /Applications/Xcode.app/Contents/Developer/Toolchains/XcodeDefault.xctoolchain/usr/bin/../include/c++/v1/vector:444:68
Ltmp791:
	movq	%rdx, 928(%rbx)
Ltmp792:
LBB14_5:                                ## %_ZN21PARAM_FOR_LED_CONTROL16Set_SizeOfBlocksEi.exit
	##DEBUG_VALUE: setup:this <- RBX
	##DEBUG_VALUE: setup:State_BandGain <- R15D
	##DEBUG_VALUE: setup:State_d2_BandGain3 <- R14D
	##DEBUG_VALUE: i <- 0
	##DEBUG_VALUE: Set_SizeOfBlocks:NumBlocks <- 5
	##DEBUG_VALUE: resize:__sz <- 5
	##DEBUG_VALUE: size:this <- RDI
	.loc	34 653 61               ## /Applications/Xcode.app/Contents/Developer/Toolchains/XcodeDefault.xctoolchain/usr/bin/../include/c++/v1/vector:653:61
	movq	1000(%rbx), %rcx
	.loc	34 653 46 is_stmt 0     ## /Applications/Xcode.app/Contents/Developer/Toolchains/XcodeDefault.xctoolchain/usr/bin/../include/c++/v1/vector:653:46
	movq	1008(%rbx), %rax
	.loc	34 653 53               ## /Applications/Xcode.app/Contents/Developer/Toolchains/XcodeDefault.xctoolchain/usr/bin/../include/c++/v1/vector:653:53
	movq	%rax, %rdx
	subq	%rcx, %rdx
	sarq	$2, %rdx
Ltmp793:
	.loc	34 1997 14 is_stmt 1    ## /Applications/Xcode.app/Contents/Developer/Toolchains/XcodeDefault.xctoolchain/usr/bin/../include/c++/v1/vector:1997:14
	cmpq	$5, %rdx
	jae	LBB14_6
Ltmp794:
## BB#21:
	##DEBUG_VALUE: setup:this <- RBX
	##DEBUG_VALUE: setup:State_BandGain <- R15D
	##DEBUG_VALUE: setup:State_d2_BandGain3 <- R14D
	##DEBUG_VALUE: i <- 0
	##DEBUG_VALUE: Set_SizeOfBlocks:NumBlocks <- 5
	##DEBUG_VALUE: resize:__sz <- 5
	.loc	18 107 3                ## /Users/nobuhiro/Documents/source/openframeworks/of_v0.9.0_osx_release/apps/myApps/Gusha_Entrance/src/L_Block.h:107:3
	leaq	1000(%rbx), %rdi
	movl	$5, %esi
	.loc	34 1998 29              ## /Applications/Xcode.app/Contents/Developer/Toolchains/XcodeDefault.xctoolchain/usr/bin/../include/c++/v1/vector:1998:29
Ltmp795:
	subq	%rdx, %rsi
	.loc	34 1998 9 is_stmt 0     ## /Applications/Xcode.app/Contents/Developer/Toolchains/XcodeDefault.xctoolchain/usr/bin/../include/c++/v1/vector:1998:9
	callq	__ZNSt3__16vectorIiNS_9allocatorIiEEE8__appendEm
	jmp	LBB14_22
Ltmp796:
LBB14_6:
	##DEBUG_VALUE: setup:this <- RBX
	##DEBUG_VALUE: setup:State_BandGain <- R15D
	##DEBUG_VALUE: setup:State_d2_BandGain3 <- R14D
	##DEBUG_VALUE: i <- 0
	##DEBUG_VALUE: Set_SizeOfBlocks:NumBlocks <- 5
	##DEBUG_VALUE: resize:__sz <- 5
	.loc	34 1999 14 is_stmt 1    ## /Applications/Xcode.app/Contents/Developer/Toolchains/XcodeDefault.xctoolchain/usr/bin/../include/c++/v1/vector:1999:14
	cmpq	$6, %rdx
	jb	LBB14_22
Ltmp797:
## BB#7:
	##DEBUG_VALUE: setup:this <- RBX
	##DEBUG_VALUE: setup:State_BandGain <- R15D
	##DEBUG_VALUE: setup:State_d2_BandGain3 <- R14D
	##DEBUG_VALUE: i <- 0
	##DEBUG_VALUE: Set_SizeOfBlocks:NumBlocks <- 5
	##DEBUG_VALUE: resize:__sz <- 5
	.loc	34 2000 48              ## /Applications/Xcode.app/Contents/Developer/Toolchains/XcodeDefault.xctoolchain/usr/bin/../include/c++/v1/vector:2000:48
	addq	$20, %rcx
	.loc	34 443 23               ## /Applications/Xcode.app/Contents/Developer/Toolchains/XcodeDefault.xctoolchain/usr/bin/../include/c++/v1/vector:443:23
Ltmp798:
	cmpq	%rcx, %rax
	je	LBB14_22
Ltmp799:
## BB#8:                                ## %.lr.ph.i.i.i.i.1
	##DEBUG_VALUE: setup:this <- RBX
	##DEBUG_VALUE: setup:State_BandGain <- R15D
	##DEBUG_VALUE: setup:State_d2_BandGain3 <- R14D
	##DEBUG_VALUE: i <- 0
	##DEBUG_VALUE: Set_SizeOfBlocks:NumBlocks <- 5
	##DEBUG_VALUE: resize:__sz <- 5
	.loc	34 818 9                ## /Applications/Xcode.app/Contents/Developer/Toolchains/XcodeDefault.xctoolchain/usr/bin/../include/c++/v1/vector:818:9
	leaq	-4(%rax), %rdx
	subq	%rcx, %rdx
	notq	%rdx
	andq	$-4, %rdx
	addq	%rax, %rdx
	.loc	34 444 68               ## /Applications/Xcode.app/Contents/Developer/Toolchains/XcodeDefault.xctoolchain/usr/bin/../include/c++/v1/vector:444:68
Ltmp800:
	movq	%rdx, 1008(%rbx)
Ltmp801:
LBB14_22:                               ## %_ZN21PARAM_FOR_LED_CONTROL16Set_SizeOfBlocksEi.exit.1
	##DEBUG_VALUE: setup:this <- RBX
	##DEBUG_VALUE: setup:State_BandGain <- R15D
	##DEBUG_VALUE: setup:State_d2_BandGain3 <- R14D
	##DEBUG_VALUE: i <- 0
	##DEBUG_VALUE: Set_SizeOfBlocks:NumBlocks <- 5
	##DEBUG_VALUE: resize:__sz <- 5
	##DEBUG_VALUE: size:this <- RDI
	.loc	34 653 61               ## /Applications/Xcode.app/Contents/Developer/Toolchains/XcodeDefault.xctoolchain/usr/bin/../include/c++/v1/vector:653:61
	movq	1080(%rbx), %rcx
	.loc	34 653 46 is_stmt 0     ## /Applications/Xcode.app/Contents/Developer/Toolchains/XcodeDefault.xctoolchain/usr/bin/../include/c++/v1/vector:653:46
	movq	1088(%rbx), %rax
	.loc	34 653 53               ## /Applications/Xcode.app/Contents/Developer/Toolchains/XcodeDefault.xctoolchain/usr/bin/../include/c++/v1/vector:653:53
	movq	%rax, %rdx
	subq	%rcx, %rdx
	sarq	$2, %rdx
Ltmp802:
	.loc	34 1997 14 is_stmt 1    ## /Applications/Xcode.app/Contents/Developer/Toolchains/XcodeDefault.xctoolchain/usr/bin/../include/c++/v1/vector:1997:14
	cmpq	$5, %rdx
	jae	LBB14_23
Ltmp803:
## BB#26:
	##DEBUG_VALUE: setup:this <- RBX
	##DEBUG_VALUE: setup:State_BandGain <- R15D
	##DEBUG_VALUE: setup:State_d2_BandGain3 <- R14D
	##DEBUG_VALUE: i <- 0
	##DEBUG_VALUE: Set_SizeOfBlocks:NumBlocks <- 5
	##DEBUG_VALUE: resize:__sz <- 5
	.loc	18 107 3                ## /Users/nobuhiro/Documents/source/openframeworks/of_v0.9.0_osx_release/apps/myApps/Gusha_Entrance/src/L_Block.h:107:3
	leaq	1080(%rbx), %rdi
	movl	$5, %esi
	.loc	34 1998 29              ## /Applications/Xcode.app/Contents/Developer/Toolchains/XcodeDefault.xctoolchain/usr/bin/../include/c++/v1/vector:1998:29
Ltmp804:
	subq	%rdx, %rsi
	.loc	34 1998 9 is_stmt 0     ## /Applications/Xcode.app/Contents/Developer/Toolchains/XcodeDefault.xctoolchain/usr/bin/../include/c++/v1/vector:1998:9
	callq	__ZNSt3__16vectorIiNS_9allocatorIiEEE8__appendEm
	jmp	LBB14_27
Ltmp805:
LBB14_23:
	##DEBUG_VALUE: setup:this <- RBX
	##DEBUG_VALUE: setup:State_BandGain <- R15D
	##DEBUG_VALUE: setup:State_d2_BandGain3 <- R14D
	##DEBUG_VALUE: i <- 0
	##DEBUG_VALUE: Set_SizeOfBlocks:NumBlocks <- 5
	##DEBUG_VALUE: resize:__sz <- 5
	.loc	34 1999 14 is_stmt 1    ## /Applications/Xcode.app/Contents/Developer/Toolchains/XcodeDefault.xctoolchain/usr/bin/../include/c++/v1/vector:1999:14
	cmpq	$6, %rdx
	jb	LBB14_27
Ltmp806:
## BB#24:
	##DEBUG_VALUE: setup:this <- RBX
	##DEBUG_VALUE: setup:State_BandGain <- R15D
	##DEBUG_VALUE: setup:State_d2_BandGain3 <- R14D
	##DEBUG_VALUE: i <- 0
	##DEBUG_VALUE: Set_SizeOfBlocks:NumBlocks <- 5
	##DEBUG_VALUE: resize:__sz <- 5
	.loc	34 2000 48              ## /Applications/Xcode.app/Contents/Developer/Toolchains/XcodeDefault.xctoolchain/usr/bin/../include/c++/v1/vector:2000:48
	addq	$20, %rcx
	.loc	34 443 23               ## /Applications/Xcode.app/Contents/Developer/Toolchains/XcodeDefault.xctoolchain/usr/bin/../include/c++/v1/vector:443:23
Ltmp807:
	cmpq	%rcx, %rax
	je	LBB14_27
Ltmp808:
## BB#25:                               ## %.lr.ph.i.i.i.i.2
	##DEBUG_VALUE: setup:this <- RBX
	##DEBUG_VALUE: setup:State_BandGain <- R15D
	##DEBUG_VALUE: setup:State_d2_BandGain3 <- R14D
	##DEBUG_VALUE: i <- 0
	##DEBUG_VALUE: Set_SizeOfBlocks:NumBlocks <- 5
	##DEBUG_VALUE: resize:__sz <- 5
	.loc	34 818 9                ## /Applications/Xcode.app/Contents/Developer/Toolchains/XcodeDefault.xctoolchain/usr/bin/../include/c++/v1/vector:818:9
	leaq	-4(%rax), %rdx
	subq	%rcx, %rdx
	notq	%rdx
	andq	$-4, %rdx
	addq	%rax, %rdx
	.loc	34 444 68               ## /Applications/Xcode.app/Contents/Developer/Toolchains/XcodeDefault.xctoolchain/usr/bin/../include/c++/v1/vector:444:68
Ltmp809:
	movq	%rdx, 1088(%rbx)
Ltmp810:
LBB14_27:                               ## %_ZN21PARAM_FOR_LED_CONTROL16Set_SizeOfBlocksEi.exit.2
	##DEBUG_VALUE: setup:this <- RBX
	##DEBUG_VALUE: setup:State_BandGain <- R15D
	##DEBUG_VALUE: setup:State_d2_BandGain3 <- R14D
	##DEBUG_VALUE: i <- 0
	##DEBUG_VALUE: Set_SizeOfBlocks:NumBlocks <- 5
	##DEBUG_VALUE: resize:__sz <- 5
	##DEBUG_VALUE: size:this <- RDI
	.loc	34 653 61               ## /Applications/Xcode.app/Contents/Developer/Toolchains/XcodeDefault.xctoolchain/usr/bin/../include/c++/v1/vector:653:61
	movq	1160(%rbx), %rcx
	.loc	34 653 46 is_stmt 0     ## /Applications/Xcode.app/Contents/Developer/Toolchains/XcodeDefault.xctoolchain/usr/bin/../include/c++/v1/vector:653:46
	movq	1168(%rbx), %rax
	.loc	34 653 53               ## /Applications/Xcode.app/Contents/Developer/Toolchains/XcodeDefault.xctoolchain/usr/bin/../include/c++/v1/vector:653:53
	movq	%rax, %rdx
	subq	%rcx, %rdx
	sarq	$2, %rdx
Ltmp811:
	.loc	34 1997 14 is_stmt 1    ## /Applications/Xcode.app/Contents/Developer/Toolchains/XcodeDefault.xctoolchain/usr/bin/../include/c++/v1/vector:1997:14
	cmpq	$5, %rdx
	jae	LBB14_28
Ltmp812:
## BB#31:
	##DEBUG_VALUE: setup:this <- RBX
	##DEBUG_VALUE: setup:State_BandGain <- R15D
	##DEBUG_VALUE: setup:State_d2_BandGain3 <- R14D
	##DEBUG_VALUE: i <- 0
	##DEBUG_VALUE: Set_SizeOfBlocks:NumBlocks <- 5
	##DEBUG_VALUE: resize:__sz <- 5
	.loc	18 107 3                ## /Users/nobuhiro/Documents/source/openframeworks/of_v0.9.0_osx_release/apps/myApps/Gusha_Entrance/src/L_Block.h:107:3
	leaq	1160(%rbx), %rdi
	movl	$5, %esi
	.loc	34 1998 29              ## /Applications/Xcode.app/Contents/Developer/Toolchains/XcodeDefault.xctoolchain/usr/bin/../include/c++/v1/vector:1998:29
Ltmp813:
	subq	%rdx, %rsi
	.loc	34 1998 9 is_stmt 0     ## /Applications/Xcode.app/Contents/Developer/Toolchains/XcodeDefault.xctoolchain/usr/bin/../include/c++/v1/vector:1998:9
	callq	__ZNSt3__16vectorIiNS_9allocatorIiEEE8__appendEm
	jmp	LBB14_32
Ltmp814:
LBB14_28:
	##DEBUG_VALUE: setup:this <- RBX
	##DEBUG_VALUE: setup:State_BandGain <- R15D
	##DEBUG_VALUE: setup:State_d2_BandGain3 <- R14D
	##DEBUG_VALUE: i <- 0
	##DEBUG_VALUE: Set_SizeOfBlocks:NumBlocks <- 5
	##DEBUG_VALUE: resize:__sz <- 5
	.loc	34 1999 14 is_stmt 1    ## /Applications/Xcode.app/Contents/Developer/Toolchains/XcodeDefault.xctoolchain/usr/bin/../include/c++/v1/vector:1999:14
	cmpq	$6, %rdx
	jb	LBB14_32
Ltmp815:
## BB#29:
	##DEBUG_VALUE: setup:this <- RBX
	##DEBUG_VALUE: setup:State_BandGain <- R15D
	##DEBUG_VALUE: setup:State_d2_BandGain3 <- R14D
	##DEBUG_VALUE: i <- 0
	##DEBUG_VALUE: Set_SizeOfBlocks:NumBlocks <- 5
	##DEBUG_VALUE: resize:__sz <- 5
	.loc	34 2000 48              ## /Applications/Xcode.app/Contents/Developer/Toolchains/XcodeDefault.xctoolchain/usr/bin/../include/c++/v1/vector:2000:48
	addq	$20, %rcx
	.loc	34 443 23               ## /Applications/Xcode.app/Contents/Developer/Toolchains/XcodeDefault.xctoolchain/usr/bin/../include/c++/v1/vector:443:23
Ltmp816:
	cmpq	%rcx, %rax
	je	LBB14_32
Ltmp817:
## BB#30:                               ## %.lr.ph.i.i.i.i.3
	##DEBUG_VALUE: setup:this <- RBX
	##DEBUG_VALUE: setup:State_BandGain <- R15D
	##DEBUG_VALUE: setup:State_d2_BandGain3 <- R14D
	##DEBUG_VALUE: i <- 0
	##DEBUG_VALUE: Set_SizeOfBlocks:NumBlocks <- 5
	##DEBUG_VALUE: resize:__sz <- 5
	.loc	34 818 9                ## /Applications/Xcode.app/Contents/Developer/Toolchains/XcodeDefault.xctoolchain/usr/bin/../include/c++/v1/vector:818:9
	leaq	-4(%rax), %rdx
	subq	%rcx, %rdx
	notq	%rdx
	andq	$-4, %rdx
	addq	%rax, %rdx
	.loc	34 444 68               ## /Applications/Xcode.app/Contents/Developer/Toolchains/XcodeDefault.xctoolchain/usr/bin/../include/c++/v1/vector:444:68
Ltmp818:
	movq	%rdx, 1168(%rbx)
Ltmp819:
LBB14_32:                               ## %_ZN21PARAM_FOR_LED_CONTROL16Set_SizeOfBlocksEi.exit.3
	##DEBUG_VALUE: setup:this <- RBX
	##DEBUG_VALUE: setup:State_BandGain <- R15D
	##DEBUG_VALUE: setup:State_d2_BandGain3 <- R14D
	##DEBUG_VALUE: i <- 0
	##DEBUG_VALUE: Set_SizeOfBlocks:NumBlocks <- 5
	##DEBUG_VALUE: resize:__sz <- 5
	##DEBUG_VALUE: size:this <- RDI
	.loc	34 653 61               ## /Applications/Xcode.app/Contents/Developer/Toolchains/XcodeDefault.xctoolchain/usr/bin/../include/c++/v1/vector:653:61
	movq	1240(%rbx), %rcx
	.loc	34 653 46 is_stmt 0     ## /Applications/Xcode.app/Contents/Developer/Toolchains/XcodeDefault.xctoolchain/usr/bin/../include/c++/v1/vector:653:46
	movq	1248(%rbx), %rax
	.loc	34 653 53               ## /Applications/Xcode.app/Contents/Developer/Toolchains/XcodeDefault.xctoolchain/usr/bin/../include/c++/v1/vector:653:53
	movq	%rax, %rdx
	subq	%rcx, %rdx
	sarq	$2, %rdx
Ltmp820:
	.loc	34 1997 14 is_stmt 1    ## /Applications/Xcode.app/Contents/Developer/Toolchains/XcodeDefault.xctoolchain/usr/bin/../include/c++/v1/vector:1997:14
	cmpq	$5, %rdx
	jae	LBB14_33
Ltmp821:
## BB#36:
	##DEBUG_VALUE: setup:this <- RBX
	##DEBUG_VALUE: setup:State_BandGain <- R15D
	##DEBUG_VALUE: setup:State_d2_BandGain3 <- R14D
	##DEBUG_VALUE: i <- 0
	##DEBUG_VALUE: Set_SizeOfBlocks:NumBlocks <- 5
	##DEBUG_VALUE: resize:__sz <- 5
	.loc	18 107 3                ## /Users/nobuhiro/Documents/source/openframeworks/of_v0.9.0_osx_release/apps/myApps/Gusha_Entrance/src/L_Block.h:107:3
	leaq	1240(%rbx), %rdi
	movl	$5, %esi
	.loc	34 1998 29              ## /Applications/Xcode.app/Contents/Developer/Toolchains/XcodeDefault.xctoolchain/usr/bin/../include/c++/v1/vector:1998:29
Ltmp822:
	subq	%rdx, %rsi
	.loc	34 1998 9 is_stmt 0     ## /Applications/Xcode.app/Contents/Developer/Toolchains/XcodeDefault.xctoolchain/usr/bin/../include/c++/v1/vector:1998:9
	callq	__ZNSt3__16vectorIiNS_9allocatorIiEEE8__appendEm
	jmp	LBB14_37
Ltmp823:
LBB14_33:
	##DEBUG_VALUE: setup:this <- RBX
	##DEBUG_VALUE: setup:State_BandGain <- R15D
	##DEBUG_VALUE: setup:State_d2_BandGain3 <- R14D
	##DEBUG_VALUE: i <- 0
	##DEBUG_VALUE: Set_SizeOfBlocks:NumBlocks <- 5
	##DEBUG_VALUE: resize:__sz <- 5
	.loc	34 1999 14 is_stmt 1    ## /Applications/Xcode.app/Contents/Developer/Toolchains/XcodeDefault.xctoolchain/usr/bin/../include/c++/v1/vector:1999:14
	cmpq	$6, %rdx
	jb	LBB14_37
Ltmp824:
## BB#34:
	##DEBUG_VALUE: setup:this <- RBX
	##DEBUG_VALUE: setup:State_BandGain <- R15D
	##DEBUG_VALUE: setup:State_d2_BandGain3 <- R14D
	##DEBUG_VALUE: i <- 0
	##DEBUG_VALUE: Set_SizeOfBlocks:NumBlocks <- 5
	##DEBUG_VALUE: resize:__sz <- 5
	.loc	34 2000 48              ## /Applications/Xcode.app/Contents/Developer/Toolchains/XcodeDefault.xctoolchain/usr/bin/../include/c++/v1/vector:2000:48
	addq	$20, %rcx
	.loc	34 443 23               ## /Applications/Xcode.app/Contents/Developer/Toolchains/XcodeDefault.xctoolchain/usr/bin/../include/c++/v1/vector:443:23
Ltmp825:
	cmpq	%rcx, %rax
	je	LBB14_37
Ltmp826:
## BB#35:                               ## %.lr.ph.i.i.i.i.4
	##DEBUG_VALUE: setup:this <- RBX
	##DEBUG_VALUE: setup:State_BandGain <- R15D
	##DEBUG_VALUE: setup:State_d2_BandGain3 <- R14D
	##DEBUG_VALUE: i <- 0
	##DEBUG_VALUE: Set_SizeOfBlocks:NumBlocks <- 5
	##DEBUG_VALUE: resize:__sz <- 5
	.loc	34 818 9                ## /Applications/Xcode.app/Contents/Developer/Toolchains/XcodeDefault.xctoolchain/usr/bin/../include/c++/v1/vector:818:9
	leaq	-4(%rax), %rdx
	subq	%rcx, %rdx
	notq	%rdx
	andq	$-4, %rdx
	addq	%rax, %rdx
	.loc	34 444 68               ## /Applications/Xcode.app/Contents/Developer/Toolchains/XcodeDefault.xctoolchain/usr/bin/../include/c++/v1/vector:444:68
Ltmp827:
	movq	%rdx, 1248(%rbx)
Ltmp828:
LBB14_37:                               ## %_ZN21PARAM_FOR_LED_CONTROL16Set_SizeOfBlocksEi.exit.4
	##DEBUG_VALUE: setup:this <- RBX
	##DEBUG_VALUE: setup:State_BandGain <- R15D
	##DEBUG_VALUE: setup:State_d2_BandGain3 <- R14D
	##DEBUG_VALUE: Set_SizeOfBlocks:NumBlocks <- 5
	##DEBUG_VALUE: resize:__sz <- 5
	.loc	34 653 61               ## /Applications/Xcode.app/Contents/Developer/Toolchains/XcodeDefault.xctoolchain/usr/bin/../include/c++/v1/vector:653:61
	movq	1320(%rbx), %rcx
	.loc	34 653 46 is_stmt 0     ## /Applications/Xcode.app/Contents/Developer/Toolchains/XcodeDefault.xctoolchain/usr/bin/../include/c++/v1/vector:653:46
	movq	1328(%rbx), %rax
	.loc	34 653 53               ## /Applications/Xcode.app/Contents/Developer/Toolchains/XcodeDefault.xctoolchain/usr/bin/../include/c++/v1/vector:653:53
	movq	%rax, %rdx
	subq	%rcx, %rdx
	sarq	$2, %rdx
Ltmp829:
	##DEBUG_VALUE: resize:__cs <- RDX
	.loc	34 1997 14 is_stmt 1    ## /Applications/Xcode.app/Contents/Developer/Toolchains/XcodeDefault.xctoolchain/usr/bin/../include/c++/v1/vector:1997:14
	cmpq	$5, %rdx
Ltmp830:
	.loc	34 1997 9 is_stmt 0     ## /Applications/Xcode.app/Contents/Developer/Toolchains/XcodeDefault.xctoolchain/usr/bin/../include/c++/v1/vector:1997:9
	jae	LBB14_9
Ltmp831:
## BB#38:
	##DEBUG_VALUE: setup:this <- RBX
	##DEBUG_VALUE: setup:State_BandGain <- R15D
	##DEBUG_VALUE: setup:State_d2_BandGain3 <- R14D
	##DEBUG_VALUE: Set_SizeOfBlocks:NumBlocks <- 5
	##DEBUG_VALUE: resize:__sz <- 5
	##DEBUG_VALUE: resize:__cs <- RDX
	.loc	18 107 3 is_stmt 1      ## /Users/nobuhiro/Documents/source/openframeworks/of_v0.9.0_osx_release/apps/myApps/Gusha_Entrance/src/L_Block.h:107:3
	leaq	1320(%rbx), %rdi
Ltmp832:
	##DEBUG_VALUE: size:this <- RDI
	##DEBUG_VALUE: resize:this <- RDI
	##DEBUG_VALUE: __destruct_at_end:this <- RDI
	##DEBUG_VALUE: size:this <- RDI
	movl	$5, %esi
	.loc	34 1998 29              ## /Applications/Xcode.app/Contents/Developer/Toolchains/XcodeDefault.xctoolchain/usr/bin/../include/c++/v1/vector:1998:29
Ltmp833:
	subq	%rdx, %rsi
	.loc	34 1998 9 is_stmt 0     ## /Applications/Xcode.app/Contents/Developer/Toolchains/XcodeDefault.xctoolchain/usr/bin/../include/c++/v1/vector:1998:9
	callq	__ZNSt3__16vectorIiNS_9allocatorIiEEE8__appendEm
	jmp	LBB14_12
Ltmp834:
LBB14_9:
	##DEBUG_VALUE: setup:this <- RBX
	##DEBUG_VALUE: setup:State_BandGain <- R15D
	##DEBUG_VALUE: setup:State_d2_BandGain3 <- R14D
	##DEBUG_VALUE: Set_SizeOfBlocks:NumBlocks <- 5
	##DEBUG_VALUE: resize:__sz <- 5
	##DEBUG_VALUE: resize:__cs <- RDX
	.loc	34 1999 14 is_stmt 1    ## /Applications/Xcode.app/Contents/Developer/Toolchains/XcodeDefault.xctoolchain/usr/bin/../include/c++/v1/vector:1999:14
	cmpq	$6, %rdx
	jb	LBB14_12
Ltmp835:
## BB#10:
	##DEBUG_VALUE: setup:this <- RBX
	##DEBUG_VALUE: setup:State_BandGain <- R15D
	##DEBUG_VALUE: setup:State_d2_BandGain3 <- R14D
	##DEBUG_VALUE: Set_SizeOfBlocks:NumBlocks <- 5
	##DEBUG_VALUE: resize:__sz <- 5
	.loc	34 2000 48              ## /Applications/Xcode.app/Contents/Developer/Toolchains/XcodeDefault.xctoolchain/usr/bin/../include/c++/v1/vector:2000:48
	addq	$20, %rcx
Ltmp836:
	##DEBUG_VALUE: __destruct_at_end:__new_last <- RCX
	##DEBUG_VALUE: __destruct_at_end:__new_last <- RCX
	.loc	34 443 23               ## /Applications/Xcode.app/Contents/Developer/Toolchains/XcodeDefault.xctoolchain/usr/bin/../include/c++/v1/vector:443:23
	cmpq	%rcx, %rax
	je	LBB14_12
Ltmp837:
## BB#11:                               ## %.lr.ph.i.i.i.i4
	##DEBUG_VALUE: setup:this <- RBX
	##DEBUG_VALUE: setup:State_BandGain <- R15D
	##DEBUG_VALUE: setup:State_d2_BandGain3 <- R14D
	##DEBUG_VALUE: __destruct_at_end:__new_last <- RCX
	##DEBUG_VALUE: __destruct_at_end:__new_last <- RCX
	##DEBUG_VALUE: Set_SizeOfBlocks:NumBlocks <- 5
	##DEBUG_VALUE: resize:__sz <- 5
	.loc	34 818 9                ## /Applications/Xcode.app/Contents/Developer/Toolchains/XcodeDefault.xctoolchain/usr/bin/../include/c++/v1/vector:818:9
	leaq	-4(%rax), %rdx
	subq	%rcx, %rdx
	notq	%rdx
	andq	$-4, %rdx
	addq	%rax, %rdx
	.loc	34 444 68               ## /Applications/Xcode.app/Contents/Developer/Toolchains/XcodeDefault.xctoolchain/usr/bin/../include/c++/v1/vector:444:68
Ltmp838:
	movq	%rdx, 1328(%rbx)
Ltmp839:
LBB14_12:                               ## %_ZN21PARAM_FOR_LED_CONTROL16Set_SizeOfBlocksEi.exit5
	##DEBUG_VALUE: setup:this <- RBX
	##DEBUG_VALUE: setup:State_BandGain <- R15D
	##DEBUG_VALUE: setup:State_d2_BandGain3 <- R14D
	##DEBUG_VALUE: Set_SizeOfBlocks:NumBlocks <- 5
	##DEBUG_VALUE: resize:__sz <- 5
	.loc	34 653 61               ## /Applications/Xcode.app/Contents/Developer/Toolchains/XcodeDefault.xctoolchain/usr/bin/../include/c++/v1/vector:653:61
	movq	1400(%rbx), %rcx
	.loc	34 653 46 is_stmt 0     ## /Applications/Xcode.app/Contents/Developer/Toolchains/XcodeDefault.xctoolchain/usr/bin/../include/c++/v1/vector:653:46
	movq	1408(%rbx), %rax
	.loc	34 653 53               ## /Applications/Xcode.app/Contents/Developer/Toolchains/XcodeDefault.xctoolchain/usr/bin/../include/c++/v1/vector:653:53
	movq	%rax, %rdx
	subq	%rcx, %rdx
	sarq	$2, %rdx
Ltmp840:
	##DEBUG_VALUE: resize:__cs <- RDX
	.loc	34 1997 9 is_stmt 1     ## /Applications/Xcode.app/Contents/Developer/Toolchains/XcodeDefault.xctoolchain/usr/bin/../include/c++/v1/vector:1997:9
	cmpq	$4, %rdx
	ja	LBB14_14
Ltmp841:
## BB#13:
	##DEBUG_VALUE: setup:this <- RBX
	##DEBUG_VALUE: setup:State_BandGain <- R15D
	##DEBUG_VALUE: setup:State_d2_BandGain3 <- R14D
	##DEBUG_VALUE: Set_SizeOfBlocks:NumBlocks <- 5
	##DEBUG_VALUE: resize:__sz <- 5
	##DEBUG_VALUE: resize:__cs <- RDX
	.loc	18 107 3                ## /Users/nobuhiro/Documents/source/openframeworks/of_v0.9.0_osx_release/apps/myApps/Gusha_Entrance/src/L_Block.h:107:3
	leaq	1400(%rbx), %rdi
Ltmp842:
	##DEBUG_VALUE: size:this <- RDI
	##DEBUG_VALUE: resize:this <- RDI
	##DEBUG_VALUE: __destruct_at_end:this <- RDI
	##DEBUG_VALUE: size:this <- RDI
	movl	$5, %esi
	.loc	34 1998 29              ## /Applications/Xcode.app/Contents/Developer/Toolchains/XcodeDefault.xctoolchain/usr/bin/../include/c++/v1/vector:1998:29
Ltmp843:
	subq	%rdx, %rsi
	.loc	34 1998 9 is_stmt 0     ## /Applications/Xcode.app/Contents/Developer/Toolchains/XcodeDefault.xctoolchain/usr/bin/../include/c++/v1/vector:1998:9
	callq	__ZNSt3__16vectorIiNS_9allocatorIiEEE8__appendEm
	jmp	LBB14_17
Ltmp844:
LBB14_14:
	##DEBUG_VALUE: setup:this <- RBX
	##DEBUG_VALUE: setup:State_BandGain <- R15D
	##DEBUG_VALUE: setup:State_d2_BandGain3 <- R14D
	##DEBUG_VALUE: Set_SizeOfBlocks:NumBlocks <- 5
	##DEBUG_VALUE: resize:__sz <- 5
	##DEBUG_VALUE: resize:__cs <- RDX
	.loc	34 1999 14 is_stmt 1    ## /Applications/Xcode.app/Contents/Developer/Toolchains/XcodeDefault.xctoolchain/usr/bin/../include/c++/v1/vector:1999:14
	cmpq	$6, %rdx
	jb	LBB14_17
Ltmp845:
## BB#15:
	##DEBUG_VALUE: setup:this <- RBX
	##DEBUG_VALUE: setup:State_BandGain <- R15D
	##DEBUG_VALUE: setup:State_d2_BandGain3 <- R14D
	##DEBUG_VALUE: Set_SizeOfBlocks:NumBlocks <- 5
	##DEBUG_VALUE: resize:__sz <- 5
	.loc	34 2000 48              ## /Applications/Xcode.app/Contents/Developer/Toolchains/XcodeDefault.xctoolchain/usr/bin/../include/c++/v1/vector:2000:48
	addq	$20, %rcx
Ltmp846:
	##DEBUG_VALUE: __destruct_at_end:__new_last <- RCX
	##DEBUG_VALUE: __destruct_at_end:__new_last <- RCX
	.loc	34 443 23               ## /Applications/Xcode.app/Contents/Developer/Toolchains/XcodeDefault.xctoolchain/usr/bin/../include/c++/v1/vector:443:23
	cmpq	%rcx, %rax
	je	LBB14_17
Ltmp847:
## BB#16:                               ## %.lr.ph.i.i.i.i9
	##DEBUG_VALUE: setup:this <- RBX
	##DEBUG_VALUE: setup:State_BandGain <- R15D
	##DEBUG_VALUE: setup:State_d2_BandGain3 <- R14D
	##DEBUG_VALUE: Set_SizeOfBlocks:NumBlocks <- 5
	##DEBUG_VALUE: resize:__sz <- 5
	##DEBUG_VALUE: __destruct_at_end:__new_last <- RCX
	##DEBUG_VALUE: __destruct_at_end:__new_last <- RCX
	.loc	34 818 9                ## /Applications/Xcode.app/Contents/Developer/Toolchains/XcodeDefault.xctoolchain/usr/bin/../include/c++/v1/vector:818:9
	leaq	-4(%rax), %rdx
	subq	%rcx, %rdx
	notq	%rdx
	andq	$-4, %rdx
	addq	%rax, %rdx
	.loc	34 444 68               ## /Applications/Xcode.app/Contents/Developer/Toolchains/XcodeDefault.xctoolchain/usr/bin/../include/c++/v1/vector:444:68
Ltmp848:
	movq	%rdx, 1408(%rbx)
Ltmp849:
LBB14_17:                               ## %_ZN21PARAM_FOR_LED_CONTROL16Set_SizeOfBlocksEi.exit10
	##DEBUG_VALUE: setup:this <- RBX
	##DEBUG_VALUE: setup:State_BandGain <- R15D
	##DEBUG_VALUE: setup:State_d2_BandGain3 <- R14D
	.loc	16 485 15               ## /Users/nobuhiro/Documents/source/openframeworks/of_v0.9.0_osx_release/apps/myApps/Gusha_Entrance/src/Light.cpp:485:15
	callq	__Z17ofGetElapsedTimefv
Ltmp850:
	##DEBUG_VALUE: Reset:now <- XMM0
	##DEBUG_VALUE: setup:FallTime <- 1.000000e+00
	##DEBUG_VALUE: setup:RiseTime <- 1.000000e+00
	##DEBUG_VALUE: setup:now <- XMM0
	##DEBUG_VALUE: setup:_now <- XMM0
	##DEBUG_VALUE: setup:now <- XMM0
	##DEBUG_VALUE: Reset:now <- XMM0
	##DEBUG_VALUE: setup:now <- XMM0
	##DEBUG_VALUE: Reset:now <- XMM0
	##DEBUG_VALUE: setup:now <- XMM0
	##DEBUG_VALUE: Reset:now <- XMM0
	##DEBUG_VALUE: setup:now <- XMM0
	##DEBUG_VALUE: Reset:now <- XMM0
	##DEBUG_VALUE: setup:now <- XMM0
	##DEBUG_VALUE: Reset:now <- XMM0
	##DEBUG_VALUE: setup:now <- XMM0
	##DEBUG_VALUE: Reset:now <- XMM0
	.loc	46 63 9                 ## /Users/nobuhiro/Documents/source/openframeworks/of_v0.9.0_osx_release/apps/myApps/Gusha_Entrance/src/Light.h:63:9
	movss	%xmm0, -44(%rbp)        ## 4-byte Spill
	movl	$0, 576(%rbx)
	.loc	46 64 9                 ## /Users/nobuhiro/Documents/source/openframeworks/of_v0.9.0_osx_release/apps/myApps/Gusha_Entrance/src/Light.h:64:9
	movq	$0, 584(%rbx)
	.loc	46 65 17                ## /Users/nobuhiro/Documents/source/openframeworks/of_v0.9.0_osx_release/apps/myApps/Gusha_Entrance/src/Light.h:65:17
	movss	%xmm0, 608(%rbx)
	.loc	46 66 18                ## /Users/nobuhiro/Documents/source/openframeworks/of_v0.9.0_osx_release/apps/myApps/Gusha_Entrance/src/Light.h:66:18
	movb	$0, 612(%rbx)
	.loc	46 67 13                ## /Users/nobuhiro/Documents/source/openframeworks/of_v0.9.0_osx_release/apps/myApps/Gusha_Entrance/src/Light.h:67:13
	movb	$0, 613(%rbx)
	.loc	46 68 13                ## /Users/nobuhiro/Documents/source/openframeworks/of_v0.9.0_osx_release/apps/myApps/Gusha_Entrance/src/Light.h:68:13
	movss	%xmm0, 616(%rbx)
Ltmp851:
	##DEBUG_VALUE: setup:FallTime <- 1.000000e-03
	##DEBUG_VALUE: setup:RiseTime <- 1.000000e-03
	.loc	46 55 13                ## /Users/nobuhiro/Documents/source/openframeworks/of_v0.9.0_osx_release/apps/myApps/Gusha_Entrance/src/Light.h:55:13
	movaps	LCPI14_0(%rip), %xmm1   ## xmm1 = [1.000000e+00,1.000000e+00]
	movups	%xmm1, 592(%rbx)
Ltmp852:
	##DEBUG_VALUE: setup:FallTime <- 1.000000e+00
	##DEBUG_VALUE: setup:RiseTime <- 5.000000e-01
	.loc	46 63 9                 ## /Users/nobuhiro/Documents/source/openframeworks/of_v0.9.0_osx_release/apps/myApps/Gusha_Entrance/src/Light.h:63:9
	movl	$0, 624(%rbx)
	.loc	46 64 9                 ## /Users/nobuhiro/Documents/source/openframeworks/of_v0.9.0_osx_release/apps/myApps/Gusha_Entrance/src/Light.h:64:9
	movq	$0, 632(%rbx)
	.loc	46 65 17                ## /Users/nobuhiro/Documents/source/openframeworks/of_v0.9.0_osx_release/apps/myApps/Gusha_Entrance/src/Light.h:65:17
	movss	%xmm0, 656(%rbx)
	.loc	46 66 18                ## /Users/nobuhiro/Documents/source/openframeworks/of_v0.9.0_osx_release/apps/myApps/Gusha_Entrance/src/Light.h:66:18
	movb	$0, 660(%rbx)
	.loc	46 67 13                ## /Users/nobuhiro/Documents/source/openframeworks/of_v0.9.0_osx_release/apps/myApps/Gusha_Entrance/src/Light.h:67:13
	movb	$0, 661(%rbx)
	.loc	46 68 13                ## /Users/nobuhiro/Documents/source/openframeworks/of_v0.9.0_osx_release/apps/myApps/Gusha_Entrance/src/Light.h:68:13
	movss	%xmm0, 664(%rbx)
	movabsq	$4611686018427387904, %rax ## imm = 0x4000000000000000
Ltmp853:
	##DEBUG_VALUE: setup:RiseTime <- 1.000000e-03
	.loc	46 55 13                ## /Users/nobuhiro/Documents/source/openframeworks/of_v0.9.0_osx_release/apps/myApps/Gusha_Entrance/src/Light.h:55:13
	movq	%rax, 640(%rbx)
	movabsq	$4607182418800017408, %rcx ## imm = 0x3FF0000000000000
Ltmp854:
	##DEBUG_VALUE: setup:FallTime <- 1.000000e-03
	.loc	46 58 13                ## /Users/nobuhiro/Documents/source/openframeworks/of_v0.9.0_osx_release/apps/myApps/Gusha_Entrance/src/Light.h:58:13
	movq	%rcx, 648(%rbx)
Ltmp855:
	##DEBUG_VALUE: setup:FallTime <- 1.000000e+00
	##DEBUG_VALUE: setup:RiseTime <- 0.000000e+00
	.loc	46 63 9                 ## /Users/nobuhiro/Documents/source/openframeworks/of_v0.9.0_osx_release/apps/myApps/Gusha_Entrance/src/Light.h:63:9
	movl	$0, 672(%rbx)
	.loc	46 64 9                 ## /Users/nobuhiro/Documents/source/openframeworks/of_v0.9.0_osx_release/apps/myApps/Gusha_Entrance/src/Light.h:64:9
	movq	$0, 680(%rbx)
	.loc	46 65 17                ## /Users/nobuhiro/Documents/source/openframeworks/of_v0.9.0_osx_release/apps/myApps/Gusha_Entrance/src/Light.h:65:17
	movss	%xmm0, 704(%rbx)
	.loc	46 66 18                ## /Users/nobuhiro/Documents/source/openframeworks/of_v0.9.0_osx_release/apps/myApps/Gusha_Entrance/src/Light.h:66:18
	movb	$0, 708(%rbx)
	.loc	46 67 13                ## /Users/nobuhiro/Documents/source/openframeworks/of_v0.9.0_osx_release/apps/myApps/Gusha_Entrance/src/Light.h:67:13
	movb	$0, 709(%rbx)
	.loc	46 68 13                ## /Users/nobuhiro/Documents/source/openframeworks/of_v0.9.0_osx_release/apps/myApps/Gusha_Entrance/src/Light.h:68:13
	movss	%xmm0, 712(%rbx)
	movabsq	$4652007308841189376, %rdx ## imm = 0x408F400000000000
Ltmp856:
	##DEBUG_VALUE: setup:RiseTime <- 1.000000e-03
	.loc	46 55 13                ## /Users/nobuhiro/Documents/source/openframeworks/of_v0.9.0_osx_release/apps/myApps/Gusha_Entrance/src/Light.h:55:13
	movq	%rdx, 688(%rbx)
Ltmp857:
	##DEBUG_VALUE: setup:FallTime <- 1.000000e-03
	.loc	46 58 13                ## /Users/nobuhiro/Documents/source/openframeworks/of_v0.9.0_osx_release/apps/myApps/Gusha_Entrance/src/Light.h:58:13
	movq	%rcx, 696(%rbx)
Ltmp858:
	##DEBUG_VALUE: setup:FallTime <- 1.000000e+00
	##DEBUG_VALUE: setup:RiseTime <- 5.000000e-01
	.loc	46 63 9                 ## /Users/nobuhiro/Documents/source/openframeworks/of_v0.9.0_osx_release/apps/myApps/Gusha_Entrance/src/Light.h:63:9
	movl	$0, 720(%rbx)
	.loc	46 64 9                 ## /Users/nobuhiro/Documents/source/openframeworks/of_v0.9.0_osx_release/apps/myApps/Gusha_Entrance/src/Light.h:64:9
	movq	$0, 728(%rbx)
	.loc	46 65 17                ## /Users/nobuhiro/Documents/source/openframeworks/of_v0.9.0_osx_release/apps/myApps/Gusha_Entrance/src/Light.h:65:17
	movss	%xmm0, 752(%rbx)
	.loc	46 66 18                ## /Users/nobuhiro/Documents/source/openframeworks/of_v0.9.0_osx_release/apps/myApps/Gusha_Entrance/src/Light.h:66:18
	movb	$0, 756(%rbx)
	.loc	46 67 13                ## /Users/nobuhiro/Documents/source/openframeworks/of_v0.9.0_osx_release/apps/myApps/Gusha_Entrance/src/Light.h:67:13
	movb	$0, 757(%rbx)
	.loc	46 68 13                ## /Users/nobuhiro/Documents/source/openframeworks/of_v0.9.0_osx_release/apps/myApps/Gusha_Entrance/src/Light.h:68:13
	movss	%xmm0, 760(%rbx)
Ltmp859:
	##DEBUG_VALUE: setup:RiseTime <- 1.000000e-03
	.loc	46 55 13                ## /Users/nobuhiro/Documents/source/openframeworks/of_v0.9.0_osx_release/apps/myApps/Gusha_Entrance/src/Light.h:55:13
	movq	%rax, 736(%rbx)
Ltmp860:
	##DEBUG_VALUE: setup:FallTime <- 1.000000e-03
	.loc	46 58 13                ## /Users/nobuhiro/Documents/source/openframeworks/of_v0.9.0_osx_release/apps/myApps/Gusha_Entrance/src/Light.h:58:13
	movq	%rcx, 744(%rbx)
Ltmp861:
	##DEBUG_VALUE: setup:FallTime <- 1.000000e+00
	##DEBUG_VALUE: setup:RiseTime <- 0.000000e+00
	.loc	46 63 9                 ## /Users/nobuhiro/Documents/source/openframeworks/of_v0.9.0_osx_release/apps/myApps/Gusha_Entrance/src/Light.h:63:9
	movl	$0, 768(%rbx)
	.loc	46 64 9                 ## /Users/nobuhiro/Documents/source/openframeworks/of_v0.9.0_osx_release/apps/myApps/Gusha_Entrance/src/Light.h:64:9
	movq	$0, 776(%rbx)
	.loc	46 65 17                ## /Users/nobuhiro/Documents/source/openframeworks/of_v0.9.0_osx_release/apps/myApps/Gusha_Entrance/src/Light.h:65:17
	movss	%xmm0, 800(%rbx)
	.loc	46 66 18                ## /Users/nobuhiro/Documents/source/openframeworks/of_v0.9.0_osx_release/apps/myApps/Gusha_Entrance/src/Light.h:66:18
	movb	$0, 804(%rbx)
	.loc	46 67 13                ## /Users/nobuhiro/Documents/source/openframeworks/of_v0.9.0_osx_release/apps/myApps/Gusha_Entrance/src/Light.h:67:13
	movb	$0, 805(%rbx)
	.loc	46 68 13                ## /Users/nobuhiro/Documents/source/openframeworks/of_v0.9.0_osx_release/apps/myApps/Gusha_Entrance/src/Light.h:68:13
	movss	%xmm0, 808(%rbx)
Ltmp862:
	##DEBUG_VALUE: setup:RiseTime <- 1.000000e-03
	.loc	46 55 13                ## /Users/nobuhiro/Documents/source/openframeworks/of_v0.9.0_osx_release/apps/myApps/Gusha_Entrance/src/Light.h:55:13
	movq	%rdx, 784(%rbx)
Ltmp863:
	##DEBUG_VALUE: setup:FallTime <- 1.000000e-03
	.loc	46 58 13                ## /Users/nobuhiro/Documents/source/openframeworks/of_v0.9.0_osx_release/apps/myApps/Gusha_Entrance/src/Light.h:58:13
	movq	%rcx, 792(%rbx)
Ltmp864:
	##DEBUG_VALUE: setup:FallTime <- 2.000000e+00
	##DEBUG_VALUE: setup:RiseTime <- 5.000000e-01
	.loc	46 63 9                 ## /Users/nobuhiro/Documents/source/openframeworks/of_v0.9.0_osx_release/apps/myApps/Gusha_Entrance/src/Light.h:63:9
	movl	$0, 816(%rbx)
	.loc	46 64 9                 ## /Users/nobuhiro/Documents/source/openframeworks/of_v0.9.0_osx_release/apps/myApps/Gusha_Entrance/src/Light.h:64:9
	movq	$0, 824(%rbx)
